
/home/yaguan/work/SV32WB0X_new/SSV.tiramisu.sv32wb0x.20Q2.2105.01.01R/image/akeeta_bl.elf:     file format elf32-nds32le


Disassembly of section .ota_boot_hdr:

30000040 <_bootloader_start>:
30000040:	4f f3 00 48 	bnez $sp,300000d0 <NMI_Handler>
30000044:	46 f3 00 00 	sethi $r15,#0x30000
30000048:	58 f7 81 40 	ori $r15,$r15,#0x140
3000004c:	4a 00 3c 00 	jr $r15
30000050:	3a 0f 84 3c 	smw.adm $r0,[$sp],$r1,#0x0    ! {$r0~$r1}
30000054:	46 03 00 00 	sethi $r0,#0x30000
30000058:	58 00 00 fa 	ori $r0,$r0,#0xfa
3000005c:	4a 00 00 01 	jral $r0,$r0
30000060:	3a 0f 84 3c 	smw.adm $r0,[$sp],$r1,#0x0    ! {$r0~$r1}
30000064:	46 03 00 00 	sethi $r0,#0x30000
30000068:	58 00 00 fa 	ori $r0,$r0,#0xfa
3000006c:	4a 00 00 01 	jral $r0,$r0
30000070:	3a 0f 84 3c 	smw.adm $r0,[$sp],$r1,#0x0    ! {$r0~$r1}
30000074:	46 03 00 00 	sethi $r0,#0x30000
30000078:	58 00 00 fa 	ori $r0,$r0,#0xfa
3000007c:	4a 00 00 01 	jral $r0,$r0
30000080:	3a 0f 84 3c 	smw.adm $r0,[$sp],$r1,#0x0    ! {$r0~$r1}
30000084:	46 03 00 00 	sethi $r0,#0x30000
30000088:	58 00 00 fa 	ori $r0,$r0,#0xfa
3000008c:	4a 00 00 01 	jral $r0,$r0
30000090:	3a 0f 84 3c 	smw.adm $r0,[$sp],$r1,#0x0    ! {$r0~$r1}
30000094:	46 03 00 00 	sethi $r0,#0x30000
30000098:	58 00 00 fa 	ori $r0,$r0,#0xfa
3000009c:	4a 00 00 01 	jral $r0,$r0
300000a0:	3a 0f 84 3c 	smw.adm $r0,[$sp],$r1,#0x0    ! {$r0~$r1}
300000a4:	46 03 00 00 	sethi $r0,#0x30000
300000a8:	58 00 00 fa 	ori $r0,$r0,#0xfa
300000ac:	4a 00 00 01 	jral $r0,$r0
300000b0:	3a 0f 84 3c 	smw.adm $r0,[$sp],$r1,#0x0    ! {$r0~$r1}
300000b4:	46 03 00 00 	sethi $r0,#0x30000
300000b8:	58 00 00 fa 	ori $r0,$r0,#0xfa
300000bc:	4a 00 00 01 	jral $r0,$r0
300000c0:	3a 0f 84 3c 	smw.adm $r0,[$sp],$r1,#0x0    ! {$r0~$r1}
300000c4:	46 03 00 00 	sethi $r0,#0x30000
300000c8:	58 00 00 e0 	ori $r0,$r0,#0xe0
300000cc:	4a 00 00 01 	jral $r0,$r0

300000d0 <NMI_Handler>:
300000d0:	46 00 01 00 	sethi $r0,#0x100
300000d4:	58 00 09 dc 	ori $r0,$r0,#0x9dc
300000d8:	64 12 a4 02 	mfsr $r1,$ipc
300000dc:	b6 20       	swi450 $r1,[$r0]

300000de <NMI_Handler_End>:
300000de:	d5 00       	j8 300000de <NMI_Handler_End>

300000e0 <OS_Trap_Syscall>:
300000e0:	46 00 01 00 	sethi $r0,#0x100
300000e4:	58 00 09 ec 	ori $r0,$r0,#0x9ec
300000e8:	64 12 64 02 	mfsr $r1,$itype
300000ec:	90 30       	srai45 $r1,#0x10
300000ee:	b6 20       	swi450 $r1,[$r0]
300000f0:	47 f0 01 08 	sethi $sp,#0x108
300000f4:	59 ff 80 00 	ori $sp,$sp,#0x0

300000f8 <OS_Syscall_End>:
300000f8:	d5 00       	j8 300000f8 <OS_Syscall_End>

300000fa <OS_Trap_Debug_Related>:
300000fa:	46 00 01 00 	sethi $r0,#0x100
300000fe:	58 00 09 dc 	ori $r0,$r0,#0x9dc
30000102:	64 12 a4 02 	mfsr $r1,$ipc
30000106:	b6 20       	swi450 $r1,[$r0]
30000108:	46 00 01 00 	sethi $r0,#0x100
3000010c:	58 00 09 e4 	ori $r0,$r0,#0x9e4
30000110:	64 12 64 02 	mfsr $r1,$itype
30000114:	96 67       	fexti33 $r1,#0x4
30000116:	b6 20       	swi450 $r1,[$r0]
30000118:	46 00 01 00 	sethi $r0,#0x100
3000011c:	58 00 09 f4 	ori $r0,$r0,#0x9f4
30000120:	64 12 64 02 	mfsr $r1,$itype
30000124:	54 10 8f e0 	andi $r1,$r1,#0xfe0
30000128:	92 25       	srli45 $r1,#0x5
3000012a:	b6 20       	swi450 $r1,[$r0]
3000012c:	47 f0 01 08 	sethi $sp,#0x108
30000130:	59 ff 80 00 	ori $sp,$sp,#0x0

30000134 <OS_Exception_End>:
30000134:	d5 00       	j8 30000134 <OS_Exception_End>
30000136:	92 00       	nop16
30000138:	40 00 00 09 	nop
3000013c:	40 00 00 09 	nop

30000140 <ota_boot>:
30000140:	47 d0 01 00 	sethi $gp,#0x100
30000144:	59 de 80 00 	ori $gp,$gp,#0x0
30000148:	64 00 80 02 	mfsr $r0,$msc_cfg
3000014c:	46 10 10 00 	sethi $r1,#0x1000
30000150:	40 20 04 02 	and $r2,$r0,$r1
30000154:	c2 04       	beqz38 $r2,3000015c <ota_boot+0x1c>
30000156:	84 00       	movi55 $r0,#0x0
30000158:	42 0e 00 21 	mtusr $r0,$itb
3000015c:	64 08 a0 02 	mfsr $r0,$fucpr
30000160:	58 00 00 01 	ori $r0,$r0,#0x1
30000164:	64 08 a0 03 	mtsr $r0,$fucpr
30000168:	64 00 00 08 	dsb
3000016c:	6a 00 07 01 	fmfcsr $r0
30000170:	58 00 10 00 	ori $r0,$r0,#0x1000
30000174:	6a 00 07 09 	fmtcsr $r0
30000178:	64 00 00 08 	dsb
3000017c:	3f f8 80 00 	addi.gp $sp,#0x8000
30000180:	84 0f       	movi55 $r0,#0xf
30000182:	64 04 c0 03 	mtsr $r0,$ilmb
30000186:	64 00 00 09 	isb
3000018a:	46 00 01 00 	sethi $r0,#0x100
3000018e:	58 00 00 09 	ori $r0,$r0,#0x9
30000192:	64 04 e0 03 	mtsr $r0,$dlmb
30000196:	64 00 00 09 	isb
3000019a:	46 0c 00 00 	sethi $r0,#0xc0000
3000019e:	58 00 01 00 	ori $r0,$r0,#0x100
300001a2:	84 3f       	movi55 $r1,#-1
300001a4:	14 10 00 14 	swi $r1,[$r0+#0x50]
300001a8:	14 10 00 15 	swi $r1,[$r0+#0x54]
300001ac:	49 00 00 50 	jal 3000024c <_ota_move_fast_boot_code>
300001b0:	46 f0 00 00 	sethi $r15,#0x0
300001b4:	58 f7 80 90 	ori $r15,$r15,#0x90
300001b8:	4b e0 3c 01 	jral $lp,$r15

300001bc <OTA_Init_Nds32>:
300001bc:	64 02 00 02 	mfsr $r0,$psw
300001c0:	44 1f f0 00 	movi $r1,#-4096
300001c4:	fe 0e       	and33 $r0,$r1
300001c6:	84 28       	movi55 $r1,#0x8
300001c8:	fe 0f       	or33 $r0,$r1
300001ca:	64 02 00 03 	mtsr $r0,$psw
300001ce:	64 00 00 09 	isb
300001d2:	46 f0 00 02 	sethi $r15,#0x2
300001d6:	58 f7 85 64 	ori $r15,$r15,#0x564
300001da:	dd 2f       	jral5 $r15
300001dc:	46 f0 00 02 	sethi $r15,#0x2
300001e0:	58 f7 85 10 	ori $r15,$r15,#0x510
300001e4:	dd 2f       	jral5 $r15
300001e6:	46 f0 00 02 	sethi $r15,#0x2
300001ea:	58 f7 84 c0 	ori $r15,$r15,#0x4c0
300001ee:	dd 2f       	jral5 $r15
300001f0:	46 f0 00 00 	sethi $r15,#0x0
300001f4:	58 f7 80 c0 	ori $r15,$r15,#0xc0
300001f8:	dd 2f       	jral5 $r15
300001fa:	46 f0 00 00 	sethi $r15,#0x0
300001fe:	58 f7 82 58 	ori $r15,$r15,#0x258
30000202:	dd 2f       	jral5 $r15
30000204:	46 f0 00 00 	sethi $r15,#0x0
30000208:	58 f7 80 c8 	ori $r15,$r15,#0xc8
3000020c:	dd 2f       	jral5 $r15
3000020e:	46 f0 00 00 	sethi $r15,#0x0
30000212:	58 f7 80 cc 	ori $r15,$r15,#0xcc
30000216:	dd 2f       	jral5 $r15
30000218:	96 44       	xlsb33 $r1,$r0
3000021a:	c9 02       	bnez38 $r1,3000021e <__sys_fota>
3000021c:	dd 00       	jr5 $r0

3000021e <__sys_fota>:
3000021e:	84 21       	movi55 $r1,#0x1
30000220:	46 03 00 25 	sethi $r0,#0x30025
30000224:	58 00 00 00 	ori $r0,$r0,#0x0
30000228:	5a 10 00 06 	beqc $r1,#0x0,30000234 <__fota_fs>
3000022c:	5a 10 01 04 	beqc $r1,#0x1,30000234 <__fota_fs>
30000230:	5a 10 02 03 	beqc $r1,#0x2,30000236 <__fota_ab>

30000234 <__fota_fs>:
30000234:	dd 00       	jr5 $r0

30000236 <__fota_ab>:
30000236:	46 23 00 10 	sethi $r2,#0x30010
3000023a:	58 21 00 00 	ori $r2,$r2,#0x0
3000023e:	b4 62       	lwi450 $r3,[$r2]
30000240:	cb 05       	bnez38 $r3,3000024a <__fota_ab_go_a>
30000242:	46 03 00 fc 	sethi $r0,#0x300fc
30000246:	58 00 00 00 	ori $r0,$r0,#0x0

3000024a <__fota_ab_go_a>:
3000024a:	dd 00       	jr5 $r0

3000024c <_ota_move_fast_boot_code>:
3000024c:	84 a0       	movi55 $r5,#0x0
3000024e:	44 40 00 bc 	movi $r4,#0xbc
30000252:	8a 85       	sub45 $r4,$r5
30000254:	47 03 00 00 	sethi $r16,#0x30000
30000258:	59 08 02 74 	ori $r16,$r16,#0x274
3000025c:	80 64       	mov55 $r3,$r4
3000025e:	80 25       	mov55 $r1,$r5
30000260:	80 50       	mov55 $r2,$r16
30000262:	0c 01 00 01 	lwi.bi $r0,[$r2],#0x4
30000266:	1c 00 80 01 	swi.bi $r0,[$r1],#0x4
3000026a:	50 31 ff fc 	addi $r3,$r3,#-4
3000026e:	4e 36 ff fa 	bgtz $r3,30000262 <_ota_move_fast_boot_code+0x16>
30000272:	dd 9e       	ret5 $lp

Disassembly of section .ota_fast_boot_code:

00000000 <__ota_fast_boot_start>:
   0:	3a 0f 84 3c 	smw.adm $r0,[$sp],$r1,#0x0    ! {$r0~$r1}
   4:	46 03 00 00 	sethi $r0,#0x30000
   8:	58 00 00 fa 	ori $r0,$r0,#0xfa
   c:	4a 00 00 01 	jral $r0,$r0
  10:	3a 0f 84 3c 	smw.adm $r0,[$sp],$r1,#0x0    ! {$r0~$r1}
  14:	46 03 00 00 	sethi $r0,#0x30000
  18:	58 00 00 fa 	ori $r0,$r0,#0xfa
  1c:	4a 00 00 01 	jral $r0,$r0
  20:	3a 0f 84 3c 	smw.adm $r0,[$sp],$r1,#0x0    ! {$r0~$r1}
  24:	46 03 00 00 	sethi $r0,#0x30000
  28:	58 00 00 fa 	ori $r0,$r0,#0xfa
  2c:	4a 00 00 01 	jral $r0,$r0
  30:	3a 0f 84 3c 	smw.adm $r0,[$sp],$r1,#0x0    ! {$r0~$r1}
  34:	46 03 00 00 	sethi $r0,#0x30000
  38:	58 00 00 fa 	ori $r0,$r0,#0xfa
  3c:	4a 00 00 01 	jral $r0,$r0
  40:	3a 0f 84 3c 	smw.adm $r0,[$sp],$r1,#0x0    ! {$r0~$r1}
  44:	46 03 00 00 	sethi $r0,#0x30000
  48:	58 00 00 fa 	ori $r0,$r0,#0xfa
  4c:	4a 00 00 01 	jral $r0,$r0
  50:	3a 0f 84 3c 	smw.adm $r0,[$sp],$r1,#0x0    ! {$r0~$r1}
  54:	46 03 00 00 	sethi $r0,#0x30000
  58:	58 00 00 fa 	ori $r0,$r0,#0xfa
  5c:	4a 00 00 01 	jral $r0,$r0
  60:	3a 0f 84 3c 	smw.adm $r0,[$sp],$r1,#0x0    ! {$r0~$r1}
  64:	46 03 00 00 	sethi $r0,#0x30000
  68:	58 00 00 fa 	ori $r0,$r0,#0xfa
  6c:	4a 00 00 01 	jral $r0,$r0
  70:	3a 0f 84 3c 	smw.adm $r0,[$sp],$r1,#0x0    ! {$r0~$r1}
  74:	46 03 00 00 	sethi $r0,#0x30000
  78:	58 00 00 fa 	ori $r0,$r0,#0xfa
  7c:	4a 00 00 01 	jral $r0,$r0
  80:	3a 0f 84 3c 	smw.adm $r0,[$sp],$r1,#0x0    ! {$r0~$r1}
  84:	46 03 00 00 	sethi $r0,#0x30000
  88:	58 00 00 fa 	ori $r0,$r0,#0xfa
  8c:	4a 00 00 01 	jral $r0,$r0

00000090 <_ota_move_fast_code>:
  90:	44 50 00 c0 	movi $r5,#0xc0
  94:	44 40 b4 c8 	movi $r4,#0xb4c8
  98:	8a 85       	sub45 $r4,$r5
  9a:	47 03 00 00 	sethi $r16,#0x30000
  9e:	59 08 03 30 	ori $r16,$r16,#0x330
  a2:	80 64       	mov55 $r3,$r4
  a4:	80 25       	mov55 $r1,$r5
  a6:	80 50       	mov55 $r2,$r16
  a8:	0c 01 00 01 	lwi.bi $r0,[$r2],#0x4
  ac:	1c 00 80 01 	swi.bi $r0,[$r1],#0x4
  b0:	50 31 ff fc 	addi $r3,$r3,#-4
  b4:	4e 36 ff fa 	bgtz $r3,a8 <__sys_bus_speed+0x8>
  b8:	dd 9e       	ret5 $lp
  ba:	92 00       	nop16

Disassembly of section .fast_code:

000000c0 <_boot_init>:
      c0:	84 01       	movi55 $r0,#0x1
      c2:	48 00 02 c3 	j 648 <tiny_printf_display>
      c6:	92 00       	nop16

000000c8 <custom_upgrade>:
      c8:	48 00 01 5c 	j 380 <fota_fs_upgrade>

000000cc <custom_boot_addr>:
      cc:	84 01       	movi55 $r0,#0x1
      ce:	dd 9e       	ret5 $lp
      d0:	6e 6f 74 20 	*unknown*
      d4:	73 65 63 75 	*unknown*
      d8:	72 69 74 79 	*unknown*
      dc:	20 62 6f 6f 	lbsi $r6,[$r4+#-4241]
      e0:	74 21 21 21 	*unknown*
      e4:	0a 00 00 00 	lhi.bi $r0,[$r0],#0x0
      e8:	6c 6f 63 6b 	*unknown*
      ec:	5f 63 68 69 	sltsi $r22,$r6,#-6039
      f0:	70 5f 69 64 	*unknown*
      f4:	0a 00 00 00 	lhi.bi $r0,[$r0],#0x0
      f8:	62 6c 20 73 	*unknown*
      fc:	74 61 72 74 	*unknown*
     100:	20 66 6f 74 	lbsi $r6,[$r12+#-4236]
     104:	61 5f 74 79 	*unknown*
     108:	70 65 3a 25 	*unknown*
     10c:	64 20 66 6c 	msync ???
     110:	61 67 3a 20 	*unknown*
     114:	25 64 0a 00 	*unknown*
     118:	0d 0a 00 00 	lwi.bi $r16,[$r20],#0x0
     11c:	45 6e 74 65 	movi $r22,#-101275
     120:	72 20 6d 65 	*unknown*
     124:	74 61 20 69 	*unknown*
     128:	6e 74 65 72 	*unknown*
     12c:	66 61 63 65 	bitci $r6,$r2,#0x6365
     130:	0a 00 00 00 	lhi.bi $r0,[$r0],#0x0
     134:	4f 4b 0a 0a 	*unknown*
     138:	00 00 00 00 	lbi $r0,[$r0+#0x0]
     13c:	25 73 3a 25 	*unknown*
     140:	64 0a 00 00 	*unknown*
     144:	66 6f 74 61 	bitci $r6,$lp,#0x7461
     148:	20 65 72 72 	lbsi $r6,[$r10+#-3470]
     14c:	00 00 00 00 	lbi $r0,[$r0+#0x0]

00000150 <chip_init>:
     150:	3a 6f 98 bc 	smw.adm $r6,[$sp],$r6,#0x2    ! {$r6, $lp}
     154:	46 0c cb 0b 	sethi $r0,#0xccb0b
     158:	04 10 00 33 	lwi $r1,[$r0+#0xcc]
     15c:	4e 12 00 08 	beqz $r1,16c <chip_init+0x1c>
     160:	04 10 00 30 	lwi $r1,[$r0+#0xc0]
     164:	58 10 80 01 	ori $r1,$r1,#0x1
     168:	14 10 00 30 	swi $r1,[$r0+#0xc0]
     16c:	46 1d 90 03 	sethi $r1,#0xd9003
     170:	04 00 83 ff 	lwi $r0,[$r1+#0xffc]
     174:	54 20 00 04 	andi $r2,$r0,#0x4
     178:	c2 06       	beqz38 $r2,184 <chip_init+0x34>
     17a:	04 10 83 f9 	lwi $r1,[$r1+#0xfe4]
     17e:	92 3c       	srli45 $r1,#0x1c
     180:	4e 13 00 38 	bnez $r1,1f0 <chip_init+0xa0>
     184:	40 10 48 09 	srli $r1,$r0,#0x12
     188:	96 4f       	fexti33 $r1,#0x1
     18a:	92 10       	srli45 $r0,#0x10
     18c:	5a 10 01 2c 	beqc $r1,#0x1,1e4 <chip_init+0x94>
     190:	5a 10 03 24 	beqc $r1,#0x3,1d8 <chip_init+0x88>
     194:	54 10 00 30 	andi $r1,$r0,#0x30
     198:	5a 10 30 16 	beqc $r1,#0x30,1c4 <chip_init+0x74>
     19c:	46 1c 00 00 	sethi $r1,#0xc0000
     1a0:	46 25 35 35 	sethi $r2,#0x53535
     1a4:	a1 4d       	lwi333 $r5,[$r1+#0x14]
     1a6:	50 21 06 36 	addi $r2,$r2,#0x636
     1aa:	da 07       	bnes38 $r2,1b8 <chip_init+0x68>
     1ac:	46 23 03 23 	sethi $r2,#0x30323
     1b0:	a1 4c       	lwi333 $r5,[$r1+#0x10]
     1b2:	50 21 00 43 	addi $r2,$r2,#0x43
     1b6:	d2 23       	beqs38 $r2,1fc <chip_init+0xac>
     1b8:	44 00 00 e8 	movi $r0,#0xe8
     1bc:	49 00 02 4a 	jal 650 <tiny_printf>
     1c0:	d5 00       	j8 1c0 <chip_init+0x70>
     1c2:	92 00       	nop16
     1c4:	54 10 00 c0 	andi $r1,$r0,#0xc0
     1c8:	5a 10 40 ea 	beqc $r1,#0x40,19c <chip_init+0x4c>
     1cc:	84 40       	movi55 $r2,#0x0
     1ce:	46 1c 00 00 	sethi $r1,#0xc0000
     1d2:	14 20 80 7d 	swi $r2,[$r1+#0x1f4]
     1d6:	d5 e3       	j8 19c <chip_init+0x4c>
     1d8:	84 40       	movi55 $r2,#0x0
     1da:	46 1c 00 00 	sethi $r1,#0xc0000
     1de:	14 20 80 7c 	swi $r2,[$r1+#0x1f0]
     1e2:	d5 d9       	j8 194 <chip_init+0x44>
     1e4:	46 2c 00 00 	sethi $r2,#0xc0000
     1e8:	14 11 00 7c 	swi $r1,[$r2+#0x1f0]
     1ec:	d5 d4       	j8 194 <chip_init+0x44>
     1ee:	92 00       	nop16
     1f0:	44 00 00 d0 	movi $r0,#0xd0
     1f4:	49 00 02 2e 	jal 650 <tiny_printf>
     1f8:	d5 00       	j8 1f8 <chip_init+0xa8>
     1fa:	92 00       	nop16
     1fc:	46 25 45 55 	sethi $r2,#0x54555
     200:	04 50 80 31 	lwi $r5,[$r1+#0xc4]
     204:	50 21 02 49 	addi $r2,$r2,#0x249
     208:	da d8       	bnes38 $r2,1b8 <chip_init+0x68>
     20a:	04 50 80 30 	lwi $r5,[$r1+#0xc0]
     20e:	46 15 34 d4 	sethi $r1,#0x534d4
     212:	50 10 8f 20 	addi $r1,$r1,#0xf20
     216:	d9 d1       	bnes38 $r1,1b8 <chip_init+0x68>
     218:	92 08       	srli45 $r0,#0x8
     21a:	66 00 00 08 	bitci $r0,$r0,#0x8
     21e:	5a 08 67 17 	bnec $r0,#0x67,24c <chip_init+0xfc>
     222:	46 2c cb 0b 	sethi $r2,#0xccb0b
     226:	84 01       	movi55 $r0,#0x1
     228:	14 01 00 33 	swi $r0,[$r2+#0xcc]
     22c:	3c 3c 00 18 	lwi.gp $r3,[+#0x60]
     230:	46 13 00 00 	sethi $r1,#0x30000
     234:	58 10 83 30 	ori $r1,$r1,#0x330
     238:	44 00 00 c0 	movi $r0,#0xc0
     23c:	9a 08       	sub333 $r0,$r1,$r0
     23e:	88 03       	add45 $r0,$r3
     240:	14 01 00 38 	swi $r0,[$r2+#0xe0]
     244:	3a 6f 98 84 	lmw.bim $r6,[$sp],$r6,#0x2    ! {$r6, $lp}
     248:	4a 00 78 20 	ret $lp
     24c:	44 00 00 e8 	movi $r0,#0xe8
     250:	49 00 02 00 	jal 650 <tiny_printf>
     254:	d5 00       	j8 254 <chip_init+0x104>
     256:	92 00       	nop16

00000258 <ota_c_code>:
     258:	3a 6f 98 bc 	smw.adm $r6,[$sp],$r6,#0x2    ! {$r6, $lp}
     25c:	ef f0       	addi10.sp #-16
     25e:	84 01       	movi55 $r0,#0x1
     260:	f0 82       	swi37.sp $r0,[+#0x8]
     262:	46 03 00 10 	sethi $r0,#0x30010
     266:	04 00 00 00 	lwi $r0,[$r0+#0x0]
     26a:	f0 83       	swi37.sp $r0,[+#0xc]
     26c:	49 ff ff 72 	jal 150 <chip_init>
     270:	49 00 01 c2 	jal 5f4 <ota_flash_init>
     274:	f1 02       	lwi37.sp $r1,[+#0x8]
     276:	f0 03       	lwi37.sp $r0,[+#0xc]
     278:	f0 81       	swi37.sp $r0,[+#0x4]
     27a:	b6 3f       	swi450 $r1,[$sp]
     27c:	44 00 00 f8 	movi $r0,#0xf8
     280:	49 00 01 e8 	jal 650 <tiny_printf>
     284:	46 0c cb 0b 	sethi $r0,#0xccb0b
     288:	04 00 00 30 	lwi $r0,[$r0+#0xc0]
     28c:	96 16       	bmski33 $r0,#0x2
     28e:	c0 1b       	beqz38 $r0,2c4 <ota_c_code+0x6c>
     290:	46 0c 00 00 	sethi $r0,#0xc0000
     294:	04 20 01 58 	lwi $r2,[$r0+#0x560]
     298:	54 11 30 00 	andi $r1,$r2,#0x3000
     29c:	c1 36       	beqz38 $r1,308 <ota_c_code+0xb0>
     29e:	04 50 03 07 	lwi $r5,[$r0+#0xc1c]
     2a2:	44 10 41 1a 	movi $r1,#0x411a
     2a6:	d1 13       	beqs38 $r1,2cc <ota_c_code+0x74>
     2a8:	44 10 05 6c 	movi $r1,#0x56c
     2ac:	4c 50 80 66 	beq $r5,$r1,378 <ota_c_code+0x120>
     2b0:	5a 58 ad 04 	bnec $r5,#0xad,2b8 <ota_c_code+0x60>
     2b4:	48 00 00 5e 	j 370 <ota_c_code+0x118>
     2b8:	46 60 01 6e 	sethi $r6,#0x16e
     2bc:	50 63 03 60 	addi $r6,$r6,#0x360
     2c0:	84 00       	movi55 $r0,#0x0
     2c2:	d5 09       	j8 2d4 <ota_c_code+0x7c>
     2c4:	ec 10       	addi10.sp #0x10
     2c6:	3a 6f 98 84 	lmw.bim $r6,[$sp],$r6,#0x2    ! {$r6, $lp}
     2ca:	dd 9e       	ret5 $lp
     2cc:	44 60 25 80 	movi $r6,#0x2580
     2d0:	84 00       	movi55 $r0,#0x0
     2d2:	92 00       	nop16
     2d4:	49 00 08 0c 	jal 12ec <drv_comport_init>
     2d8:	84 23       	movi55 $r1,#0x3
     2da:	84 40       	movi55 $r2,#0x0
     2dc:	84 60       	movi55 $r3,#0x0
     2de:	80 06       	mov55 $r0,$r6
     2e0:	49 00 08 32 	jal 1344 <drv_comport_set_format>
     2e4:	49 00 05 ce 	jal e80 <Cli_Init>
     2e8:	44 00 01 18 	movi $r0,#0x118
     2ec:	49 00 10 a6 	jal 2438 <printf>
     2f0:	44 00 01 1c 	movi $r0,#0x11c
     2f4:	49 00 10 a2 	jal 2438 <printf>
     2f8:	44 00 01 34 	movi $r0,#0x134
     2fc:	49 00 10 9e 	jal 2438 <printf>
     300:	49 00 06 04 	jal f08 <Cli_Start>
     304:	d5 fe       	j8 300 <ota_c_code+0xa8>
     306:	92 00       	nop16
     308:	44 10 c0 00 	movi $r1,#0xc000
     30c:	fe 56       	and33 $r1,$r2
     30e:	c1 21       	beqz38 $r1,350 <ota_c_code+0xf8>
     310:	04 50 03 4a 	lwi $r5,[$r0+#0xd28]
     314:	46 00 05 50 	sethi $r0,#0x550
     318:	50 00 08 23 	addi $r0,$r0,#0x823
     31c:	d0 26       	beqs38 $r0,368 <ota_c_code+0x110>
     31e:	92 00       	nop16
     320:	46 00 09 c0 	sethi $r0,#0x9c0
     324:	50 00 00 ad 	addi $r0,$r0,#0xad
     328:	d0 10       	beqs38 $r0,348 <ota_c_code+0xf0>
     32a:	46 00 0b 30 	sethi $r0,#0xb30
     32e:	8c 15       	addi45 $r0,#0x15
     330:	d0 08       	beqs38 $r0,340 <ota_c_code+0xe8>
     332:	46 60 01 6e 	sethi $r6,#0x16e
     336:	50 63 03 60 	addi $r6,$r6,#0x360
     33a:	84 01       	movi55 $r0,#0x1
     33c:	48 ff ff cc 	j 2d4 <ota_c_code+0x7c>
     340:	46 60 00 e1 	sethi $r6,#0xe1
     344:	84 01       	movi55 $r0,#0x1
     346:	d5 c7       	j8 2d4 <ota_c_code+0x7c>
     348:	44 61 c2 00 	movi $r6,#0x1c200
     34c:	84 01       	movi55 $r0,#0x1
     34e:	d5 c3       	j8 2d4 <ota_c_code+0x7c>
     350:	44 17 00 00 	movi $r1,#0x70000
     354:	fe 56       	and33 $r1,$r2
     356:	c1 11       	beqz38 $r1,378 <ota_c_code+0x120>
     358:	04 50 03 8a 	lwi $r5,[$r0+#0xe28]
     35c:	46 00 05 50 	sethi $r0,#0x550
     360:	50 00 08 23 	addi $r0,$r0,#0x823
     364:	d8 de       	bnes38 $r0,320 <ota_c_code+0xc8>
     366:	92 00       	nop16
     368:	44 60 25 80 	movi $r6,#0x2580
     36c:	84 01       	movi55 $r0,#0x1
     36e:	d5 b3       	j8 2d4 <ota_c_code+0x7c>
     370:	46 60 00 e1 	sethi $r6,#0xe1
     374:	84 00       	movi55 $r0,#0x0
     376:	d5 af       	j8 2d4 <ota_c_code+0x7c>
     378:	44 61 c2 00 	movi $r6,#0x1c200
     37c:	84 00       	movi55 $r0,#0x0
     37e:	d5 ab       	j8 2d4 <ota_c_code+0x7c>

00000380 <fota_fs_upgrade>:
     380:	3b ff fc bc 	smw.adm $sp,[$sp],$sp,#0x2    ! {$lp}
     384:	ef dc       	addi10.sp #-36
     386:	84 01       	movi55 $r0,#0x1
     388:	f0 83       	swi37.sp $r0,[+#0xc]
     38a:	46 03 00 10 	sethi $r0,#0x30010
     38e:	04 00 00 00 	lwi $r0,[$r0+#0x0]
     392:	f0 84       	swi37.sp $r0,[+#0x10]
     394:	3e 0f c0 00 	addi.gp $r0,#-16384
     398:	f0 85       	swi37.sp $r0,[+#0x14]
     39a:	46 00 02 00 	sethi $r0,#0x200
     39e:	58 00 00 00 	ori $r0,$r0,#0x0
     3a2:	f0 86       	swi37.sp $r0,[+#0x18]
     3a4:	46 03 00 25 	sethi $r0,#0x30025
     3a8:	58 00 00 00 	ori $r0,$r0,#0x0
     3ac:	f2 06       	lwi37.sp $r2,[+#0x18]
     3ae:	f1 05       	lwi37.sp $r1,[+#0x14]
     3b0:	f0 87       	swi37.sp $r0,[+#0x1c]
     3b2:	f0 03       	lwi37.sp $r0,[+#0xc]
     3b4:	5a 00 01 06 	beqc $r0,#0x1,3c0 <fota_fs_upgrade+0x40>
     3b8:	ec 24       	addi10.sp #0x24
     3ba:	3b ff fc 84 	lmw.bim $sp,[$sp],$sp,#0x2    ! {$lp}
     3be:	dd 9e       	ret5 $lp
     3c0:	f0 04       	lwi37.sp $r0,[+#0x10]
     3c2:	5a 08 01 fb 	bnec $r0,#0x1,3b8 <fota_fs_upgrade+0x38>
     3c6:	f0 05       	lwi37.sp $r0,[+#0x14]
     3c8:	9a 51       	sub333 $r1,$r2,$r1
     3ca:	49 00 03 9b 	jal b00 <OTA_LITTLEFS_init>
     3ce:	c0 11       	beqz38 $r0,3f0 <fota_fs_upgrade+0x70>
     3d0:	49 00 03 ee 	jal bac <OTA_LITTLEFS_find_and_check>
     3d4:	c0 22       	beqz38 $r0,418 <fota_fs_upgrade+0x98>
     3d6:	49 00 04 8d 	jal cf0 <OTA_LIEELEFS_find_and_update>
     3da:	c0 29       	beqz38 $r0,42c <fota_fs_upgrade+0xac>
     3dc:	44 00 01 44 	movi $r0,#0x144
     3e0:	b6 1f       	swi450 $r0,[$sp]
     3e2:	84 1f       	movi55 $r0,#-1
     3e4:	f0 81       	swi37.sp $r0,[+#0x4]
     3e6:	44 00 01 3c 	movi $r0,#0x13c
     3ea:	49 00 01 33 	jal 650 <tiny_printf>
     3ee:	d5 0b       	j8 404 <fota_fs_upgrade+0x84>
     3f0:	44 00 01 44 	movi $r0,#0x144
     3f4:	b6 1f       	swi450 $r0,[$sp]
     3f6:	84 1c       	movi55 $r0,#-4
     3f8:	14 0f 80 01 	swi $r0,[$sp+#0x4]
     3fc:	44 00 01 3c 	movi $r0,#0x13c
     400:	49 00 01 28 	jal 650 <tiny_printf>
     404:	46 03 00 10 	sethi $r0,#0x30010
     408:	58 00 00 00 	ori $r0,$r0,#0x0
     40c:	40 00 20 08 	slli $r0,$r0,#0x8
     410:	92 08       	srli45 $r0,#0x8
     412:	49 00 00 79 	jal 504 <ota_flash_sector_erase>
     416:	d5 d1       	j8 3b8 <fota_fs_upgrade+0x38>
     418:	44 00 01 44 	movi $r0,#0x144
     41c:	b6 1f       	swi450 $r0,[$sp]
     41e:	84 1d       	movi55 $r0,#-3
     420:	f0 81       	swi37.sp $r0,[+#0x4]
     422:	44 00 01 3c 	movi $r0,#0x13c
     426:	49 00 01 15 	jal 650 <tiny_printf>
     42a:	d5 ed       	j8 404 <fota_fs_upgrade+0x84>
     42c:	44 00 01 44 	movi $r0,#0x144
     430:	b6 1f       	swi450 $r0,[$sp]
     432:	84 1e       	movi55 $r0,#-2
     434:	f0 81       	swi37.sp $r0,[+#0x4]
     436:	44 00 01 3c 	movi $r0,#0x13c
     43a:	49 00 01 0b 	jal 650 <tiny_printf>
     43e:	d5 e3       	j8 404 <fota_fs_upgrade+0x84>

00000440 <flash_wait_spi_status_register>:
     440:	ef f8       	addi10.sp #-8
     442:	46 2c 00 01 	sethi $r2,#0xc0001
     446:	3e 38 00 9c 	addi.gp $r3,#0x9c
     44a:	86 45       	movi55 $r18,#0x5
     44c:	51 11 00 14 	addi $r17,$r2,#0x14
     450:	86 03       	movi55 $r16,#0x3
     452:	84 a1       	movi55 $r5,#0x1
     454:	44 40 00 64 	movi $r4,#0x64
     458:	3c 3e 00 24 	swi.gp $r3,[+#0x90]
     45c:	a8 d1       	swi333 $r3,[$r2+#0x4]
     45e:	3c 0c 00 26 	lwi.gp $r0,[+#0x98]
     462:	b7 c0       	swi450 $r18,[$r0]
     464:	b7 91       	swi450 $r16,[$r17]
     466:	a9 54       	swi333 $r5,[$r2+#0x10]
     468:	f4 81       	swi37.sp $r4,[+#0x4]
     46a:	f0 01       	lwi37.sp $r0,[+#0x4]
     46c:	9e 41       	subi333 $r1,$r0,#0x1
     46e:	f1 81       	swi37.sp $r1,[+#0x4]
     470:	c8 fd       	bnez38 $r0,46a <flash_wait_spi_status_register+0x2a>
     472:	a0 13       	lwi333 $r0,[$r2+#0xc]
     474:	54 00 00 09 	andi $r0,$r0,#0x9
     478:	c8 fd       	bnez38 $r0,472 <flash_wait_spi_status_register+0x32>
     47a:	3c 0c 00 24 	lwi.gp $r0,[+#0x90]
     47e:	b4 00       	lwi450 $r0,[$r0]
     480:	96 04       	xlsb33 $r0,$r0
     482:	c8 eb       	bnez38 $r0,458 <flash_wait_spi_status_register+0x18>
     484:	ec 08       	addi10.sp #0x8
     486:	dd 9e       	ret5 $lp

00000488 <flash_write_enable>:
     488:	3b ff fc bc 	smw.adm $sp,[$sp],$sp,#0x2    ! {$lp}
     48c:	ef f4       	addi10.sp #-12
     48e:	3c 1c 00 26 	lwi.gp $r1,[+#0x98]
     492:	84 46       	movi55 $r2,#0x6
     494:	b6 41       	swi450 $r2,[$r1]
     496:	46 0c 00 01 	sethi $r0,#0xc0001
     49a:	84 20       	movi55 $r1,#0x0
     49c:	a8 45       	swi333 $r1,[$r0+#0x14]
     49e:	84 21       	movi55 $r1,#0x1
     4a0:	a8 44       	swi333 $r1,[$r0+#0x10]
     4a2:	44 00 00 64 	movi $r0,#0x64
     4a6:	f0 81       	swi37.sp $r0,[+#0x4]
     4a8:	f0 01       	lwi37.sp $r0,[+#0x4]
     4aa:	9e 41       	subi333 $r1,$r0,#0x1
     4ac:	f1 81       	swi37.sp $r1,[+#0x4]
     4ae:	c8 fd       	bnez38 $r0,4a8 <flash_write_enable+0x20>
     4b0:	46 1c 00 01 	sethi $r1,#0xc0001
     4b4:	a0 0b       	lwi333 $r0,[$r1+#0xc]
     4b6:	54 00 00 09 	andi $r0,$r0,#0x9
     4ba:	c8 fd       	bnez38 $r0,4b4 <flash_write_enable+0x2c>
     4bc:	49 ff ff c2 	jal 440 <flash_wait_spi_status_register>
     4c0:	ec 0c       	addi10.sp #0xc
     4c2:	3b ff fc 84 	lmw.bim $sp,[$sp],$sp,#0x2    ! {$lp}
     4c6:	dd 9e       	ret5 $lp

000004c8 <ota_flashctl_bitmode>:
     4c8:	ef f8       	addi10.sp #-8
     4ca:	44 10 00 64 	movi $r1,#0x64
     4ce:	f1 81       	swi37.sp $r1,[+#0x4]
     4d0:	f1 01       	lwi37.sp $r1,[+#0x4]
     4d2:	9e 89       	subi333 $r2,$r1,#0x1
     4d4:	f2 81       	swi37.sp $r2,[+#0x4]
     4d6:	c9 fd       	bnez38 $r1,4d0 <ota_flashctl_bitmode+0x8>
     4d8:	46 2c 00 01 	sethi $r2,#0xc0001
     4dc:	a0 53       	lwi333 $r1,[$r2+#0xc]
     4de:	50 31 00 0c 	addi $r3,$r2,#0xc
     4e2:	54 10 80 09 	andi $r1,$r1,#0x9
     4e6:	c9 fb       	bnez38 $r1,4dc <ota_flashctl_bitmode+0x14>
     4e8:	5a 00 02 08 	beqc $r0,#0x2,4f8 <ota_flashctl_bitmode+0x30>
     4ec:	b4 03       	lwi450 $r0,[$r3]
     4ee:	66 00 00 06 	bitci $r0,$r0,#0x6
     4f2:	b6 03       	swi450 $r0,[$r3]
     4f4:	ec 08       	addi10.sp #0x8
     4f6:	dd 9e       	ret5 $lp
     4f8:	b4 03       	lwi450 $r0,[$r3]
     4fa:	58 00 00 04 	ori $r0,$r0,#0x4
     4fe:	b6 03       	swi450 $r0,[$r3]
     500:	ec 08       	addi10.sp #0x8
     502:	dd 9e       	ret5 $lp

00000504 <ota_flash_sector_erase>:
     504:	3a 6f 98 bc 	smw.adm $r6,[$sp],$r6,#0x2    ! {$r6, $lp}
     508:	ef f8       	addi10.sp #-8
     50a:	80 c0       	mov55 $r6,$r0
     50c:	49 ff ff be 	jal 488 <flash_write_enable>
     510:	40 33 60 09 	srli $r3,$r6,#0x18
     514:	40 13 60 08 	slli $r1,$r6,#0x18
     518:	fe 5f       	or33 $r1,$r3
     51a:	46 20 0f f0 	sethi $r2,#0xff0
     51e:	58 30 80 20 	ori $r3,$r1,#0x20
     522:	fe b6       	and33 $r2,$r6
     524:	44 10 ff 00 	movi $r1,#0xff00
     528:	92 48       	srli45 $r2,#0x8
     52a:	40 03 04 02 	and $r0,$r6,$r1
     52e:	40 00 20 08 	slli $r0,$r0,#0x8
     532:	40 11 88 04 	or $r1,$r3,$r2
     536:	fe 0f       	or33 $r0,$r1
     538:	3c 1c 00 26 	lwi.gp $r1,[+#0x98]
     53c:	46 2c 00 01 	sethi $r2,#0xc0001
     540:	b6 01       	swi450 $r0,[$r1]
     542:	84 00       	movi55 $r0,#0x0
     544:	a8 15       	swi333 $r0,[$r2+#0x14]
     546:	84 04       	movi55 $r0,#0x4
     548:	a8 14       	swi333 $r0,[$r2+#0x10]
     54a:	44 00 00 64 	movi $r0,#0x64
     54e:	f0 81       	swi37.sp $r0,[+#0x4]
     550:	f0 01       	lwi37.sp $r0,[+#0x4]
     552:	9e 41       	subi333 $r1,$r0,#0x1
     554:	f1 81       	swi37.sp $r1,[+#0x4]
     556:	c8 fd       	bnez38 $r0,550 <ota_flash_sector_erase+0x4c>
     558:	46 1c 00 01 	sethi $r1,#0xc0001
     55c:	a0 0b       	lwi333 $r0,[$r1+#0xc]
     55e:	54 00 00 09 	andi $r0,$r0,#0x9
     562:	c8 fd       	bnez38 $r0,55c <ota_flash_sector_erase+0x58>
     564:	49 ff ff 6e 	jal 440 <flash_wait_spi_status_register>
     568:	ec 08       	addi10.sp #0x8
     56a:	3a 6f 98 84 	lmw.bim $r6,[$sp],$r6,#0x2    ! {$r6, $lp}
     56e:	dd 9e       	ret5 $lp

00000570 <ota_flash_page_program>:
     570:	3a 6f 9c bc 	smw.adm $r6,[$sp],$r7,#0x2    ! {$r6~$r7, $lp}
     574:	ef f4       	addi10.sp #-12
     576:	80 e0       	mov55 $r7,$r0
     578:	3c 3c 00 25 	lwi.gp $r3,[+#0x94]
     57c:	80 c1       	mov55 $r6,$r1
     57e:	99 4b       	add333 $r5,$r1,$r3
     580:	c1 08       	beqz38 $r1,590 <ota_flash_page_program+0x20>
     582:	92 00       	nop16
     584:	08 41 00 01 	lbi.bi $r4,[$r2],#0x1
     588:	18 41 80 01 	sbi.bi $r4,[$r3],#0x1
     58c:	4c 32 ff fc 	bne $r3,$r5,584 <ota_flash_page_program+0x14>
     590:	49 ff ff 7c 	jal 488 <flash_write_enable>
     594:	40 43 e0 09 	srli $r4,$r7,#0x18
     598:	40 23 e0 08 	slli $r2,$r7,#0x18
     59c:	fe a7       	or33 $r2,$r4
     59e:	46 30 0f f0 	sethi $r3,#0xff0
     5a2:	58 41 00 02 	ori $r4,$r2,#0x2
     5a6:	fe fe       	and33 $r3,$r7
     5a8:	44 20 ff 00 	movi $r2,#0xff00
     5ac:	40 03 88 02 	and $r0,$r7,$r2
     5b0:	92 68       	srli45 $r3,#0x8
     5b2:	40 22 0c 04 	or $r2,$r4,$r3
     5b6:	40 00 20 08 	slli $r0,$r0,#0x8
     5ba:	fe 17       	or33 $r0,$r2
     5bc:	3c 2c 00 26 	lwi.gp $r2,[+#0x98]
     5c0:	46 1c 00 01 	sethi $r1,#0xc0001
     5c4:	b6 02       	swi450 $r0,[$r2]
     5c6:	84 00       	movi55 $r0,#0x0
     5c8:	a8 0d       	swi333 $r0,[$r1+#0x14]
     5ca:	8c c4       	addi45 $r6,#0x4
     5cc:	44 00 00 64 	movi $r0,#0x64
     5d0:	a9 8c       	swi333 $r6,[$r1+#0x10]
     5d2:	f0 81       	swi37.sp $r0,[+#0x4]
     5d4:	f0 01       	lwi37.sp $r0,[+#0x4]
     5d6:	9e 41       	subi333 $r1,$r0,#0x1
     5d8:	f1 81       	swi37.sp $r1,[+#0x4]
     5da:	c8 fd       	bnez38 $r0,5d4 <ota_flash_page_program+0x64>
     5dc:	46 1c 00 01 	sethi $r1,#0xc0001
     5e0:	a0 0b       	lwi333 $r0,[$r1+#0xc]
     5e2:	54 00 00 09 	andi $r0,$r0,#0x9
     5e6:	c8 fd       	bnez38 $r0,5e0 <ota_flash_page_program+0x70>
     5e8:	49 ff ff 2c 	jal 440 <flash_wait_spi_status_register>
     5ec:	ec 0c       	addi10.sp #0xc
     5ee:	3a 6f 9c 84 	lmw.bim $r6,[$sp],$r7,#0x2    ! {$r6~$r7, $lp}
     5f2:	dd 9e       	ret5 $lp

000005f4 <ota_flash_init>:
     5f4:	3a 6f 98 bc 	smw.adm $r6,[$sp],$r6,#0x2    ! {$r6, $lp}
     5f8:	44 00 00 00 	movi $r0,#0x0
     5fc:	49 ff ff 66 	jal 4c8 <ota_flashctl_bitmode>
     600:	3e 38 00 a4 	addi.gp $r3,#0xa4
     604:	3c 3e 00 26 	swi.gp $r3,[+#0x98]
     608:	46 1c 00 01 	sethi $r1,#0xc0001
     60c:	3e 08 00 a8 	addi.gp $r0,#0xa8
     610:	3c 0e 00 25 	swi.gp $r0,[+#0x94]
     614:	3e 28 00 9c 	addi.gp $r2,#0x9c
     618:	b6 61       	swi450 $r3,[$r1]
     61a:	84 01       	movi55 $r0,#0x1
     61c:	3c 2e 00 24 	swi.gp $r2,[+#0x90]
     620:	a8 89       	swi333 $r2,[$r1+#0x4]
     622:	3a 6f 98 84 	lmw.bim $r6,[$sp],$r6,#0x2    ! {$r6, $lp}
     626:	dd 9e       	ret5 $lp

00000628 <tiny_vprintf_help>:
     628:	3a 6f 98 bc 	smw.adm $r6,[$sp],$r6,#0x2    ! {$r6, $lp}
     62c:	80 c0       	mov55 $r6,$r0
     62e:	5a 00 0a 09 	beqc $r0,#0xa,640 <tiny_vprintf_help+0x18>
     632:	80 06       	mov55 $r0,$r6
     634:	49 00 10 b6 	jal 27a0 <serial_tx>
     638:	84 00       	movi55 $r0,#0x0
     63a:	3a 6f 98 84 	lmw.bim $r6,[$sp],$r6,#0x2    ! {$r6, $lp}
     63e:	dd 9e       	ret5 $lp
     640:	84 0d       	movi55 $r0,#0xd
     642:	49 00 10 af 	jal 27a0 <serial_tx>
     646:	d5 f6       	j8 632 <tiny_vprintf_help+0xa>

00000648 <tiny_printf_display>:
     648:	3e 00 00 00 	sbi.gp $r0,[+#0x0]
     64c:	dd 9e       	ret5 $lp
     64e:	92 00       	nop16

00000650 <tiny_printf>:
     650:	2e 18 00 00 	lbsi.gp $r1,[+#0x0]
     654:	c9 04       	bnez38 $r1,65c <tiny_printf+0xc>
     656:	84 00       	movi55 $r0,#0x0
     658:	dd 9e       	ret5 $lp
     65a:	92 00       	nop16
     65c:	3a 6f 98 bc 	smw.adm $r6,[$sp],$r6,#0x2    ! {$r6, $lp}
     660:	44 20 06 28 	movi $r2,#0x628
     664:	b0 42       	addri36.sp $r1,#0x8
     666:	84 60       	movi55 $r3,#0x0
     668:	49 00 00 06 	jal 674 <tiny_do_printf>
     66c:	3a 6f 98 84 	lmw.bim $r6,[$sp],$r6,#0x2    ! {$r6, $lp}
     670:	dd 9e       	ret5 $lp
     672:	92 00       	nop16

00000674 <tiny_do_printf>:
     674:	3a 6f ba bc 	smw.adm $r6,[$sp],$r14,#0xa    ! {$r6~$r14, $fp, $lp}
     678:	ef dc       	addi10.sp #-36
     67a:	36 3f 80 06 	fsdi $fd3,[$sp+#0x18]
     67e:	80 c0       	mov55 $r6,$r0
     680:	20 00 00 00 	lbsi $r0,[$r0+#0x0]
     684:	f3 81       	swi37.sp $r3,[+#0x4]
     686:	4e 02 01 aa 	beqz $r0,9da <tiny_do_printf+0x366>
     68a:	81 a1       	mov55 $r13,$r1
     68c:	84 20       	movi55 $r1,#0x0
     68e:	6a 13 80 09 	fmtsr $r1,$fs7
     692:	44 10 00 30 	movi $r1,#0x30
     696:	6a 13 00 09 	fmtsr $r1,$fs6
     69a:	80 e2       	mov55 $r7,$r2
     69c:	87 80       	movi55 $fp,#0x0
     69e:	85 00       	movi55 $r8,#0x0
     6a0:	85 40       	movi55 $r10,#0x0
     6a2:	85 60       	movi55 $r11,#0x0
     6a4:	44 f0 06 b0 	movi $r15,#0x6b0
     6a8:	38 17 ae 02 	lw $r1,[$r15+($r11<<#0x2)]
     6ac:	4a 00 04 00 	jr $r1
     6b0:	18 07 00 00 	sbi.bi $r0,[$r14],#0x0
     6b4:	c8 06       	bnez38 $r0,6c0 <tiny_do_printf+0x4c>
     6b6:	00 00 08 08 	lbi $r0,[$r0+#0x808]
     6ba:	00 00 28 07 	lbi $r0,[$r0+#0x2807]
     6be:	00 00 e8 07 	lbi $r0,[$r1+#-6137]
     6c2:	00 00 8c c1 	lbi $r0,[$r1+#0xcc1]
     6c6:	92 00       	nop16
     6c8:	20 23 00 00 	lbsi $r2,[$r6+#0x0]
     6cc:	5a 28 25 04 	bnec $r2,#0x25,6d4 <tiny_do_printf+0x60>
     6d0:	48 00 01 6d 	j 9aa <tiny_do_printf+0x336>
     6d4:	5a 28 2d 04 	bnec $r2,#0x2d,6dc <tiny_do_printf+0x68>
     6d8:	48 00 01 2e 	j 934 <tiny_do_printf+0x2c0>
     6dc:	50 e3 00 00 	addi $r14,$r6,#0x0
     6e0:	5a 28 30 04 	bnec $r2,#0x30,6e8 <tiny_do_printf+0x74>
     6e4:	48 00 01 56 	j 990 <tiny_do_printf+0x31c>
     6e8:	50 01 7f d0 	addi $r0,$r2,#-48
     6ec:	96 00       	zeb33 $r0,$r0
     6ee:	e6 0a       	slti45 $r0,#0xa
     6f0:	e8 20       	beqzs8 730 <tiny_do_printf+0xbc>
     6f2:	84 0a       	movi55 $r0,#0xa
     6f4:	42 2e 00 73 	maddr32 $r2,$fp,$r0
     6f8:	85 62       	movi55 $r11,#0x2
     6fa:	51 c1 7f d0 	addi $fp,$r2,#-48
     6fe:	92 00       	nop16
     700:	20 07 00 01 	lbsi $r0,[$r14+#0x1]
     704:	50 67 00 01 	addi $r6,$r14,#0x1
     708:	c8 ce       	bnez38 $r0,6a4 <tiny_do_printf+0x30>
     70a:	80 08       	mov55 $r0,$r8
     70c:	ec 18       	addi10.sp #0x18
     70e:	34 3f 90 03 	fldi.bi $fd3,[$sp],#0xc
     712:	3a 6f ba 84 	lmw.bim $r6,[$sp],$r14,#0xa    ! {$r6~$r14, $fp, $lp}
     716:	dd 9e       	ret5 $lp
     718:	5a 00 25 d6 	beqc $r0,#0x25,6c4 <tiny_do_printf+0x50>
     71c:	b0 41       	addri36.sp $r1,#0x4
     71e:	dd 27       	jral5 $r7
     720:	8d 01       	addi45 $r8,#0x1
     722:	81 c6       	mov55 $r14,$r6
     724:	d5 ee       	j8 700 <tiny_do_printf+0x8c>
     726:	92 00       	nop16
     728:	20 23 00 00 	lbsi $r2,[$r6+#0x0]
     72c:	81 c6       	mov55 $r14,$r6
     72e:	92 00       	nop16
     730:	5a 28 4e 04 	bnec $r2,#0x4e,738 <tiny_do_printf+0xc4>
     734:	48 00 00 f7 	j 922 <tiny_do_printf+0x2ae>
     738:	5a 28 6c 04 	bnec $r2,#0x6c,740 <tiny_do_printf+0xcc>
     73c:	48 00 00 f6 	j 928 <tiny_do_printf+0x2b4>
     740:	5a 28 68 04 	bnec $r2,#0x68,748 <tiny_do_printf+0xd4>
     744:	48 00 01 20 	j 984 <tiny_do_printf+0x310>
     748:	50 21 7f a8 	addi $r2,$r2,#-88
     74c:	84 20       	movi55 $r1,#0x0
     74e:	5c f1 00 21 	slti $r15,$r2,#0x21
     752:	10 1f 80 17 	sbi $r1,[$sp+#0x17]
     756:	e8 54       	beqzs8 7fe <tiny_do_printf+0x18a>
     758:	44 f0 07 64 	movi $r15,#0x764
     75c:	38 07 8a 02 	lw $r0,[$r15+($r2<<#0x2)]
     760:	4a 00 00 00 	jr $r0
     764:	18 09 00 00 	sbi.bi $r0,[$r18],#0x0
     768:	fe 07       	or33 $r0,$r0
     76a:	00 00 fe 07 	lbi $r0,[$r1+#-505]
     76e:	00 00 fe 07 	lbi $r0,[$r1+#-505]
     772:	00 00 fe 07 	lbi $r0,[$r1+#-505]
     776:	00 00 fe 07 	lbi $r0,[$r1+#-505]
     77a:	00 00 fe 07 	lbi $r0,[$r1+#-505]
     77e:	00 00 fe 07 	lbi $r0,[$r1+#-505]
     782:	00 00 fe 07 	lbi $r0,[$r1+#-505]
     786:	00 00 fe 07 	lbi $r0,[$r1+#-505]
     78a:	00 00 fe 07 	lbi $r0,[$r1+#-505]
     78e:	00 00 68 09 	lbi $r0,[$r0+#-6135]
     792:	00 00 14 08 	lbi $r0,[$r0+#0x1408]
     796:	00 00 fe 07 	lbi $r0,[$r1+#-505]
     79a:	00 00 fe 07 	lbi $r0,[$r1+#-505]
     79e:	00 00 fe 07 	lbi $r0,[$r1+#-505]
     7a2:	00 00 fe 07 	lbi $r0,[$r1+#-505]
     7a6:	00 00 14 08 	lbi $r0,[$r0+#0x1408]
     7aa:	00 00 fe 07 	lbi $r0,[$r1+#-505]
     7ae:	00 00 fe 07 	lbi $r0,[$r1+#-505]
     7b2:	00 00 fe 07 	lbi $r0,[$r1+#-505]
     7b6:	00 00 fe 07 	lbi $r0,[$r1+#-505]
     7ba:	00 00 1c 09 	lbi $r0,[$r0+#0x1c09]
     7be:	00 00 54 09 	lbi $r0,[$r0+#-11255]
     7c2:	00 00 1c 09 	lbi $r0,[$r0+#0x1c09]
     7c6:	00 00 fe 07 	lbi $r0,[$r1+#-505]
     7ca:	00 00 fe 07 	lbi $r0,[$r1+#-505]
     7ce:	00 00 5a 09 	lbi $r0,[$r0+#-9719]
     7d2:	00 00 fe 07 	lbi $r0,[$r1+#-505]
     7d6:	00 00 18 08 	lbi $r0,[$r0+#0x1808]
     7da:	00 00 fe 07 	lbi $r0,[$r1+#-505]
     7de:	00 00 fe 07 	lbi $r0,[$r1+#-505]
     7e2:	00 00 1c 09 	lbi $r0,[$r0+#0x1c09]
     7e6:	00 00 20 23 	lbi $r0,[$r0+#0x2023]
     7ea:	00 00 84 20 	lbi $r0,[$r1+#0x420]
     7ee:	50 21 7f a8 	addi $r2,$r2,#-88
     7f2:	5c f1 00 21 	slti $r15,$r2,#0x21
     7f6:	81 c6       	mov55 $r14,$r6
     7f8:	10 1f 80 17 	sbi $r1,[$sp+#0x17]
     7fc:	e9 ae       	bnezs8 758 <tiny_do_printf+0xe4>
     7fe:	87 80       	movi55 $fp,#0x0
     800:	85 40       	movi55 $r10,#0x0
     802:	85 60       	movi55 $r11,#0x0
     804:	48 ff ff 7e 	j 700 <tiny_do_printf+0x8c>
     808:	20 23 00 00 	lbsi $r2,[$r6+#0x0]
     80c:	81 c6       	mov55 $r14,$r6
     80e:	48 ff ff 6d 	j 6e8 <tiny_do_printf+0x74>
     812:	92 00       	nop16
     814:	58 a5 00 04 	ori $r10,$r10,#0x4
     818:	44 00 00 0a 	movi $r0,#0xa
     81c:	54 15 00 08 	andi $r1,$r10,#0x8
     820:	c1 70       	beqz38 $r1,900 <tiny_do_printf+0x28c>
     822:	50 26 80 04 	addi $r2,$r13,#0x4
     826:	54 15 00 04 	andi $r1,$r10,#0x4
     82a:	b4 6d       	lwi450 $r3,[$r13]
     82c:	81 a2       	mov55 $r13,$r2
     82e:	c9 6f       	bnez38 $r1,90c <tiny_do_printf+0x298>
     830:	50 6f 80 17 	addi $r6,$sp,#0x17
     834:	54 25 00 02 	andi $r2,$r10,#0x2
     838:	d5 0c       	j8 850 <tiny_do_printf+0x1dc>
     83a:	92 00       	nop16
     83c:	50 12 00 37 	addi $r1,$r4,#0x37
     840:	50 42 00 57 	addi $r4,$r4,#0x57
     844:	ca 0e       	bnez38 $r2,860 <tiny_do_printf+0x1ec>
     846:	40 31 80 77 	divr $r3,$r3,$r3,$r0
     84a:	af 30       	sbi333 $r4,[$r6+#0x0]
     84c:	c3 0e       	beqz38 $r3,868 <tiny_do_printf+0x1f4>
     84e:	92 00       	nop16
     850:	40 11 80 97 	divr $r1,$r4,$r3,$r0
     854:	e6 8a       	slti45 $r4,#0xa
     856:	50 12 00 30 	addi $r1,$r4,#0x30
     85a:	8e c1       	subi45 $r6,#0x1
     85c:	e8 f0       	beqzs8 83c <tiny_do_printf+0x1c8>
     85e:	92 00       	nop16
     860:	40 31 80 77 	divr $r3,$r3,$r3,$r0
     864:	ae 70       	sbi333 $r1,[$r6+#0x0]
     866:	cb f5       	bnez38 $r3,850 <tiny_do_printf+0x1dc>
     868:	50 03 00 00 	addi $r0,$r6,#0x0
     86c:	49 00 0f 8e 	jal 2788 <my_strlen>
     870:	6a 13 80 01 	fmfsr $r1,$fs7
     874:	54 c5 00 20 	andi $r12,$r10,#0x20
     878:	40 10 b0 06 	slt $r1,$r1,$r12
     87c:	54 95 00 60 	andi $r9,$r10,#0x60
     880:	40 c0 04 00 	add $r12,$r0,$r1
     884:	5a 98 60 04 	bnec $r9,#0x60,88c <tiny_do_printf+0x218>
     888:	48 00 00 9b 	j 9be <tiny_do_printf+0x34a>
     88c:	54 05 00 01 	andi $r0,$r10,#0x1
     890:	c8 18       	bnez38 $r0,8c0 <tiny_do_printf+0x24c>
     892:	40 06 70 06 	slt $r0,$r12,$fp
     896:	c0 15       	beqz38 $r0,8c0 <tiny_do_printf+0x24c>
     898:	6a 13 00 01 	fmfsr $r1,$fs6
     89c:	54 a5 00 40 	andi $r10,$r10,#0x40
     8a0:	fa 10       	movpi45 $r0,#0x20
     8a2:	40 10 28 1a 	cmovz $r1,$r0,$r10
     8a6:	81 7c       	mov55 $r11,$fp
     8a8:	81 41       	mov55 $r10,$r1
     8aa:	80 0a       	mov55 $r0,$r10
     8ac:	b0 41       	addri36.sp $r1,#0x4
     8ae:	8f 61       	subi45 $r11,#0x1
     8b0:	4b e0 1c 01 	jral $lp,$r7
     8b4:	40 06 2c 06 	slt $r0,$r12,$r11
     8b8:	c8 f9       	bnez38 $r0,8aa <tiny_do_printf+0x236>
     8ba:	89 1c       	add45 $r8,$fp
     8bc:	8b 0c       	sub45 $r8,$r12
     8be:	83 8c       	mov55 $fp,$r12
     8c0:	5a 90 20 70 	beqc $r9,#0x20,9a0 <tiny_do_printf+0x32c>
     8c4:	a6 30       	lbi333 $r0,[$r6+#0x0]
     8c6:	c0 09       	beqz38 $r0,8d8 <tiny_do_printf+0x264>
     8c8:	8c c1       	addi45 $r6,#0x1
     8ca:	b0 41       	addri36.sp $r1,#0x4
     8cc:	4b e0 1c 01 	jral $lp,$r7
     8d0:	08 03 00 01 	lbi.bi $r0,[$r6],#0x1
     8d4:	8d 01       	addi45 $r8,#0x1
     8d6:	c8 fa       	bnez38 $r0,8ca <tiny_do_printf+0x256>
     8d8:	40 0e 30 06 	slt $r0,$fp,$r12
     8dc:	c8 91       	bnez38 $r0,7fe <tiny_do_printf+0x18a>
     8de:	40 ce 30 01 	sub $r12,$fp,$r12
     8e2:	4e c2 ff 8e 	beqz $r12,7fe <tiny_do_printf+0x18a>
     8e6:	80 cc       	mov55 $r6,$r12
     8e8:	8e c1       	subi45 $r6,#0x1
     8ea:	fa 10       	movpi45 $r0,#0x20
     8ec:	b0 41       	addri36.sp $r1,#0x4
     8ee:	dd 27       	jral5 $r7
     8f0:	ce fc       	bnez38 $r6,8e8 <tiny_do_printf+0x274>
     8f2:	89 0c       	add45 $r8,$r12
     8f4:	87 80       	movi55 $fp,#0x0
     8f6:	85 40       	movi55 $r10,#0x0
     8f8:	85 60       	movi55 $r11,#0x0
     8fa:	48 ff ff 03 	j 700 <tiny_do_printf+0x8c>
     8fe:	92 00       	nop16
     900:	54 15 00 04 	andi $r1,$r10,#0x4
     904:	b4 6d       	lwi450 $r3,[$r13]
     906:	50 d6 80 04 	addi $r13,$r13,#0x4
     90a:	c1 93       	beqz38 $r1,830 <tiny_do_printf+0x1bc>
     90c:	4e 34 ff 92 	bgez $r3,830 <tiny_do_printf+0x1bc>
     910:	58 a5 00 20 	ori $r10,$r10,#0x20
     914:	fe da       	neg33 $r3,$r3
     916:	d5 8d       	j8 830 <tiny_do_printf+0x1bc>
     918:	58 a5 00 02 	ori $r10,$r10,#0x2
     91c:	fa 00       	movpi45 $r0,#0x10
     91e:	48 ff ff 7f 	j 81c <tiny_do_printf+0x1a8>
     922:	85 63       	movi55 $r11,#0x3
     924:	48 ff fe ee 	j 700 <tiny_do_printf+0x8c>
     928:	58 a5 00 08 	ori $r10,$r10,#0x8
     92c:	85 63       	movi55 $r11,#0x3
     92e:	48 ff fe e9 	j 700 <tiny_do_printf+0x8c>
     932:	92 00       	nop16
     934:	54 05 00 01 	andi $r0,$r10,#0x1
     938:	c0 08       	beqz38 $r0,948 <tiny_do_printf+0x2d4>
     93a:	81 c6       	mov55 $r14,$r6
     93c:	87 80       	movi55 $fp,#0x0
     93e:	85 40       	movi55 $r10,#0x0
     940:	44 b0 00 00 	movi $r11,#0x0
     944:	48 ff fe de 	j 700 <tiny_do_printf+0x8c>
     948:	58 a5 00 01 	ori $r10,$r10,#0x1
     94c:	81 c6       	mov55 $r14,$r6
     94e:	85 61       	movi55 $r11,#0x1
     950:	48 ff fe d8 	j 700 <tiny_do_printf+0x8c>
     954:	84 08       	movi55 $r0,#0x8
     956:	48 ff ff 63 	j 81c <tiny_do_printf+0x1a8>
     95a:	b4 cd       	lwi450 $r6,[$r13]
     95c:	66 a5 00 40 	bitci $r10,$r10,#0x40
     960:	50 d6 80 04 	addi $r13,$r13,#0x4
     964:	48 ff ff 82 	j 868 <tiny_do_printf+0x1f4>
     968:	b4 0d       	lwi450 $r0,[$r13]
     96a:	54 95 00 20 	andi $r9,$r10,#0x20
     96e:	10 0f 80 16 	sbi $r0,[$sp+#0x16]
     972:	66 a5 00 40 	bitci $r10,$r10,#0x40
     976:	50 d6 80 04 	addi $r13,$r13,#0x4
     97a:	50 6f 80 16 	addi $r6,$sp,#0x16
     97e:	85 81       	movi55 $r12,#0x1
     980:	d5 86       	j8 88c <tiny_do_printf+0x218>
     982:	92 00       	nop16
     984:	58 a5 00 10 	ori $r10,$r10,#0x10
     988:	85 63       	movi55 $r11,#0x3
     98a:	48 ff fe bb 	j 700 <tiny_do_printf+0x8c>
     98e:	92 00       	nop16
     990:	58 a5 00 40 	ori $r10,$r10,#0x40
     994:	50 e3 00 01 	addi $r14,$r6,#0x1
     998:	20 23 00 01 	lbsi $r2,[$r6+#0x1]
     99c:	48 ff fe a6 	j 6e8 <tiny_do_printf+0x74>
     9a0:	fa 1d       	movpi45 $r0,#0x2d
     9a2:	b0 41       	addri36.sp $r1,#0x4
     9a4:	dd 27       	jral5 $r7
     9a6:	8d 01       	addi45 $r8,#0x1
     9a8:	d5 8e       	j8 8c4 <tiny_do_printf+0x250>
     9aa:	fa 15       	movpi45 $r0,#0x25
     9ac:	b0 41       	addri36.sp $r1,#0x4
     9ae:	dd 27       	jral5 $r7
     9b0:	8d 01       	addi45 $r8,#0x1
     9b2:	81 c6       	mov55 $r14,$r6
     9b4:	87 80       	movi55 $fp,#0x0
     9b6:	85 40       	movi55 $r10,#0x0
     9b8:	85 60       	movi55 $r11,#0x0
     9ba:	48 ff fe a3 	j 700 <tiny_do_printf+0x8c>
     9be:	fa 1d       	movpi45 $r0,#0x2d
     9c0:	b0 41       	addri36.sp $r1,#0x4
     9c2:	dd 27       	jral5 $r7
     9c4:	54 05 00 01 	andi $r0,$r10,#0x1
     9c8:	8d 01       	addi45 $r8,#0x1
     9ca:	4e 03 ff 7d 	bnez $r0,8c4 <tiny_do_printf+0x250>
     9ce:	40 06 70 06 	slt $r0,$r12,$fp
     9d2:	4e 03 ff 63 	bnez $r0,898 <tiny_do_printf+0x224>
     9d6:	48 ff ff 77 	j 8c4 <tiny_do_printf+0x250>
     9da:	84 00       	movi55 $r0,#0x0
     9dc:	48 ff fe 98 	j 70c <tiny_do_printf+0x98>

000009e0 <_block_read>:
     9e0:	3a 6f 98 bc 	smw.adm $r6,[$sp],$r6,#0x2    ! {$r6, $lp}
     9e4:	3d 0c 00 22 	lwi.gp $r16,[+#0x88]
     9e8:	a1 47       	lwi333 $r5,[$r0+#0x1c]
     9ea:	46 03 00 00 	sethi $r0,#0x30000
     9ee:	88 10       	add45 $r0,$r16
     9f0:	88 40       	add45 $r2,$r0
     9f2:	42 20 94 73 	maddr32 $r2,$r1,$r5
     9f6:	80 03       	mov55 $r0,$r3
     9f8:	80 22       	mov55 $r1,$r2
     9fa:	80 44       	mov55 $r2,$r4
     9fc:	49 00 4a a8 	jal 9f4c <memcpy>
     a00:	84 00       	movi55 $r0,#0x0
     a02:	3a 6f 98 84 	lmw.bim $r6,[$sp],$r6,#0x2    ! {$r6, $lp}
     a06:	dd 9e       	ret5 $lp
     a08:	3d 3d 3d 3d 	lwi.gp $r19,[+#-199436]
     a0c:	3d 53 50 49 	lhi.gp $r21,[+#-89966]
     a10:	46 46 53 20 	sethi $r4,#0x65320
     a14:	66 6f 72 6d 	bitci $r6,$lp,#0x726d
     a18:	61 74 20 66 	*unknown*
     a1c:	61 69 6c 65 	*unknown*
     a20:	64 3a 20 25 	trap #0x5101
     a24:	3d 3d 3d 3d 	lwi.gp $r19,[+#-199436]
     a28:	3d 6c 64 0a 	lwi.gp $r22,[+#0x19028]
     a2c:	00 00 00 00 	lbi $r0,[$r0+#0x0]
     a30:	3d 3d 3d 3d 	lwi.gp $r19,[+#-199436]
     a34:	3d 53 50 49 	lhi.gp $r21,[+#-89966]
     a38:	46 46 53 20 	sethi $r4,#0x65320
     a3c:	6d 6f 75 6e 	*unknown*
     a40:	74 20 66 61 	*unknown*
     a44:	69 6c 65 64 	*unknown*
     a48:	3a 20 25 3d 	smwa.adm $r2,[$r0],$r9,#0x4    ! {$r2~$r9, $gp}
     a4c:	3d 3d 3d 3d 	lwi.gp $r19,[+#-199436]
     a50:	6c 64 0a 00 	*unknown*
     a54:	6f 74 61 5f 	*unknown*
     a58:	69 6e 66 6f 	*unknown*
     a5c:	2e 62 69 6e 	lbi.gp $r6,[+#0x2696e]
     a60:	00 00 00 00 	lbi $r0,[$r0+#0x0]
     a64:	0a 6e 6f 20 	lhi.bi $r6,[$fp],#-8640
     a68:	6f 74 61 5f 	*unknown*
     a6c:	69 6e 66 6f 	*unknown*
     a70:	2e 62 69 6e 	lbi.gp $r6,[+#0x2696e]
     a74:	0a 00 00 00 	lhi.bi $r0,[$r0],#0x0
     a78:	0a 72 65 61 	lhi.bi $r7,[$r4],#-13630
     a7c:	64 20 65 72 	*unknown*
     a80:	72 3a 20 25 	*unknown*
     a84:	64 0a 00 00 	*unknown*
     a88:	0a 63 61 6c 	lhi.bi $r6,[$r6],#-15656
     a8c:	63 20 6d 64 	*unknown*
     a90:	35 2c 20 77 	cpldi cp1,$cpr18,[$r24+#0x1dc]
     a94:	61 69 74 69 	*unknown*
     a98:	6e 67 0a 00 	*unknown*
     a9c:	6f 74 61 2e 	*unknown*
     aa0:	62 69 6e 00 	*unknown*
     aa4:	0a 6e 6f 20 	lhi.bi $r6,[$fp],#-8640
     aa8:	6f 74 61 2e 	*unknown*
     aac:	62 69 6e 0a 	*unknown*
     ab0:	00 00 00 00 	lbi $r0,[$r0+#0x0]
     ab4:	66 6f 74 61 	bitci $r6,$lp,#0x7461
     ab8:	20 75 70 64 	lbsi $r7,[$r10+#-3996]
     abc:	61 74 65 3a 	amttsl2.s $d0,$r8,$r25,[$i2],[$i6],$m2,$m7
     ac0:	28 69 6d 67 	lbsi.bi $r6,[$r18],#-4761
     ac4:	20 73 69 7a 	lbsi $r7,[$r6+#-5766]
     ac8:	65 3a 20 25 	trap #0x5101
     acc:	64 29 0a 00 	*unknown*
     ad0:	61 64 64 72 	*unknown*
     ad4:	3a 25 78 20 	smw.bi $r2,[$r10],$lp,#0x0    ! {$r2~$lp}
     ad8:	73 69 7a 65 	*unknown*
     adc:	3a 20 25 78 	smw.ad $r2,[$r0],$r9,#0x5    ! {$r2~$r9, $gp, $sp}
     ae0:	0a 00 00 00 	lhi.bi $r0,[$r0],#0x0
     ae4:	0a 53 50 49 	lhi.bi $r5,[$r6],#-24430
     ae8:	46 46 53 5f 	sethi $r4,#0x6535f
     aec:	72 65 61 64 	*unknown*
     af0:	20 30 78 25 	lbsi $r3,[$r0+#-2011]
     af4:	6c 78 20 66 	*unknown*
     af8:	61 69 6c 0a 	*unknown*
     afc:	00 00 00 00 	lbi $r0,[$r0+#0x0]

00000b00 <OTA_LITTLEFS_init>:
     b00:	3b ff fc bc 	smw.adm $sp,[$sp],$sp,#0x2    ! {$lp}
     b04:	ef f4       	addi10.sp #-12
     b06:	45 00 09 e0 	movi $r16,#0x9e0
     b0a:	84 60       	movi55 $r3,#0x0
     b0c:	3d 0e 0a f9 	swi.gp $r16,[+#0x2be4]
     b10:	3c 3e 0a fa 	swi.gp $r3,[+#0x2be8]
     b14:	3c 3e 0a fb 	swi.gp $r3,[+#0x2bec]
     b18:	44 20 01 00 	movi $r2,#0x100
     b1c:	3c 3e 0a fc 	swi.gp $r3,[+#0x2bf0]
     b20:	3c 2e 0a fd 	swi.gp $r2,[+#0x2bf4]
     b24:	3c 2e 0a fe 	swi.gp $r2,[+#0x2bf8]
     b28:	44 30 10 00 	movi $r3,#0x1000
     b2c:	3c 3e 0a ff 	swi.gp $r3,[+#0x2bfc]
     b30:	3c 2e 0b 02 	swi.gp $r2,[+#0x2c08]
     b34:	fa 40       	movpi45 $r2,#0x10
     b36:	3c 2e 0b 03 	swi.gp $r2,[+#0x2c0c]
     b3a:	44 20 01 f4 	movi $r2,#0x1f4
     b3e:	40 50 b0 09 	srli $r5,$r1,#0xc
     b42:	3c 2e 0b 01 	swi.gp $r2,[+#0x2c04]
     b46:	80 80       	mov55 $r4,$r0
     b48:	3c 5e 0b 00 	swi.gp $r5,[+#0x2c00]
     b4c:	3e 08 2b 68 	addi.gp $r0,#0x2b68
     b50:	3e 18 2b e0 	addi.gp $r1,#0x2be0
     b54:	3c 4e 00 22 	swi.gp $r4,[+#0x88]
     b58:	49 00 27 42 	jal 59dc <lfs_mount>
     b5c:	c8 06       	bnez38 $r0,b68 <OTA_LITTLEFS_init+0x68>
     b5e:	84 01       	movi55 $r0,#0x1
     b60:	ec 0c       	addi10.sp #0xc
     b62:	3b ff fc 84 	lmw.bim $sp,[$sp],$sp,#0x2    ! {$lp}
     b66:	dd 9e       	ret5 $lp
     b68:	3e 08 2b 68 	addi.gp $r0,#0x2b68
     b6c:	3e 18 2b e0 	addi.gp $r1,#0x2be0
     b70:	49 00 37 60 	jal 7a30 <lfs_format>
     b74:	c8 12       	bnez38 $r0,b98 <OTA_LITTLEFS_init+0x98>
     b76:	3e 08 2b 68 	addi.gp $r0,#0x2b68
     b7a:	3e 18 2b e0 	addi.gp $r1,#0x2be0
     b7e:	49 00 27 2f 	jal 59dc <lfs_mount>
     b82:	c0 ee       	beqz38 $r0,b5e <OTA_LITTLEFS_init+0x5e>
     b84:	b6 1f       	swi450 $r0,[$sp]
     b86:	44 00 0a 30 	movi $r0,#0xa30
     b8a:	49 ff fd 63 	jal 650 <tiny_printf>
     b8e:	84 00       	movi55 $r0,#0x0
     b90:	ec 0c       	addi10.sp #0xc
     b92:	3b ff fc 84 	lmw.bim $sp,[$sp],$sp,#0x2    ! {$lp}
     b96:	dd 9e       	ret5 $lp
     b98:	b6 1f       	swi450 $r0,[$sp]
     b9a:	44 00 0a 08 	movi $r0,#0xa08
     b9e:	49 ff fd 59 	jal 650 <tiny_printf>
     ba2:	84 00       	movi55 $r0,#0x0
     ba4:	ec 0c       	addi10.sp #0xc
     ba6:	3b ff fc 84 	lmw.bim $sp,[$sp],$sp,#0x2    ! {$lp}
     baa:	dd 9e       	ret5 $lp

00000bac <OTA_LITTLEFS_find_and_check>:
     bac:	3a 6f a0 bc 	smw.adm $r6,[$sp],$r8,#0x2    ! {$r6~$r8, $lp}
     bb0:	51 ff fd e0 	addi $sp,$sp,#-544
     bb4:	3e 08 2b 68 	addi.gp $r0,#0x2b68
     bb8:	b0 4b       	addri36.sp $r1,#0x2c
     bba:	44 20 0a 54 	movi $r2,#0xa54
     bbe:	84 61       	movi55 $r3,#0x1
     bc0:	49 00 37 34 	jal 7a28 <lfs_file_open>
     bc4:	4e 05 00 6e 	bltz $r0,ca0 <OTA_LITTLEFS_find_and_check+0xf4>
     bc8:	3e 08 2b 68 	addi.gp $r0,#0x2b68
     bcc:	b0 4b       	addri36.sp $r1,#0x2c
     bce:	b0 83       	addri36.sp $r2,#0xc
     bd0:	44 30 00 10 	movi $r3,#0x10
     bd4:	49 00 2d 72 	jal 66b8 <lfs_file_read>
     bd8:	5a 00 10 13 	beqc $r0,#0x10,bfe <OTA_LITTLEFS_find_and_check+0x52>
     bdc:	fa 00       	movpi45 $r0,#0x10
     bde:	b6 1f       	swi450 $r0,[$sp]
     be0:	44 00 0a 78 	movi $r0,#0xa78
     be4:	49 ff fd 36 	jal 650 <tiny_printf>
     be8:	3e 08 2b 68 	addi.gp $r0,#0x2b68
     bec:	b0 4b       	addri36.sp $r1,#0x2c
     bee:	49 00 35 63 	jal 76b4 <lfs_file_close>
     bf2:	84 00       	movi55 $r0,#0x0
     bf4:	51 ff 82 20 	addi $sp,$sp,#0x220
     bf8:	3a 6f a0 84 	lmw.bim $r6,[$sp],$r8,#0x2    ! {$r6~$r8, $lp}
     bfc:	dd 9e       	ret5 $lp
     bfe:	b0 4b       	addri36.sp $r1,#0x2c
     c00:	3e 08 2b 68 	addi.gp $r0,#0x2b68
     c04:	49 00 35 58 	jal 76b4 <lfs_file_close>
     c08:	44 00 0a 88 	movi $r0,#0xa88
     c0c:	49 ff fd 22 	jal 650 <tiny_printf>
     c10:	3e 08 2b 68 	addi.gp $r0,#0x2b68
     c14:	b0 4b       	addri36.sp $r1,#0x2c
     c16:	44 20 0a 9c 	movi $r2,#0xa9c
     c1a:	84 61       	movi55 $r3,#0x1
     c1c:	49 00 37 06 	jal 7a28 <lfs_file_open>
     c20:	4e 05 00 60 	bltz $r0,ce0 <OTA_LITTLEFS_find_and_check+0x134>
     c24:	44 10 0a 9c 	movi $r1,#0xa9c
     c28:	50 2f 81 18 	addi $r2,$sp,#0x118
     c2c:	3e 08 2b 68 	addi.gp $r0,#0x2b68
     c30:	49 00 26 bc 	jal 59a8 <lfs_stat>
     c34:	f6 47       	lwi37.sp $r6,[+#0x11c]
     c36:	b0 20       	addri36.sp $r0,#0x80
     c38:	49 00 13 c0 	jal 33b8 <MD5_Init>
     c3c:	44 80 04 00 	movi $r8,#0x400
     c40:	ce 06       	bnez38 $r6,c4c <OTA_LITTLEFS_find_and_check+0xa0>
     c42:	d5 39       	j8 cb4 <OTA_LITTLEFS_find_and_check+0x108>
     c44:	49 00 13 d2 	jal 33e8 <MD5_Update>
     c48:	c6 36       	beqz38 $r6,cb4 <OTA_LITTLEFS_find_and_check+0x108>
     c4a:	92 00       	nop16
     c4c:	5c f3 04 00 	slti $r15,$r6,#0x400
     c50:	80 08       	mov55 $r0,$r8
     c52:	40 03 3c 1b 	cmovn $r0,$r6,$r15
     c56:	b0 4b       	addri36.sp $r1,#0x2c
     c58:	3e 28 2c 28 	addi.gp $r2,#0x2c28
     c5c:	80 60       	mov55 $r3,$r0
     c5e:	80 e0       	mov55 $r7,$r0
     c60:	3e 08 2b 68 	addi.gp $r0,#0x2b68
     c64:	49 00 2d 2a 	jal 66b8 <lfs_file_read>
     c68:	80 40       	mov55 $r2,$r0
     c6a:	3e 18 2c 28 	addi.gp $r1,#0x2c28
     c6e:	b0 20       	addri36.sp $r0,#0x80
     c70:	8a c2       	sub45 $r6,$r2
     c72:	4c 23 bf e9 	beq $r2,$r7,c44 <OTA_LITTLEFS_find_and_check+0x98>
     c76:	b6 ff       	swi450 $r7,[$sp]
     c78:	44 00 0a 78 	movi $r0,#0xa78
     c7c:	49 ff fc ea 	jal 650 <tiny_printf>
     c80:	b0 07       	addri36.sp $r0,#0x1c
     c82:	b0 60       	addri36.sp $r1,#0x80
     c84:	49 00 13 fa 	jal 3478 <MD5_Final>
     c88:	b0 4b       	addri36.sp $r1,#0x2c
     c8a:	3e 08 2b 68 	addi.gp $r0,#0x2b68
     c8e:	49 00 35 13 	jal 76b4 <lfs_file_close>
     c92:	84 00       	movi55 $r0,#0x0
     c94:	51 ff 82 20 	addi $sp,$sp,#0x220
     c98:	3a 6f a0 84 	lmw.bim $r6,[$sp],$r8,#0x2    ! {$r6~$r8, $lp}
     c9c:	dd 9e       	ret5 $lp
     c9e:	92 00       	nop16
     ca0:	44 00 0a 64 	movi $r0,#0xa64
     ca4:	49 ff fc d6 	jal 650 <tiny_printf>
     ca8:	84 00       	movi55 $r0,#0x0
     caa:	51 ff 82 20 	addi $sp,$sp,#0x220
     cae:	3a 6f a0 84 	lmw.bim $r6,[$sp],$r8,#0x2    ! {$r6~$r8, $lp}
     cb2:	dd 9e       	ret5 $lp
     cb4:	b0 07       	addri36.sp $r0,#0x1c
     cb6:	b0 60       	addri36.sp $r1,#0x80
     cb8:	49 00 13 e0 	jal 3478 <MD5_Final>
     cbc:	b0 4b       	addri36.sp $r1,#0x2c
     cbe:	3e 08 2b 68 	addi.gp $r0,#0x2b68
     cc2:	49 00 34 f9 	jal 76b4 <lfs_file_close>
     cc6:	b0 03       	addri36.sp $r0,#0xc
     cc8:	b0 47       	addri36.sp $r1,#0x1c
     cca:	fa 40       	movpi45 $r2,#0x10
     ccc:	49 00 0d 48 	jal 275c <my_memcmp>
     cd0:	5c 00 00 01 	slti $r0,$r0,#0x1
     cd4:	51 ff 82 20 	addi $sp,$sp,#0x220
     cd8:	3a 6f a0 84 	lmw.bim $r6,[$sp],$r8,#0x2    ! {$r6~$r8, $lp}
     cdc:	dd 9e       	ret5 $lp
     cde:	92 00       	nop16
     ce0:	44 00 0a a4 	movi $r0,#0xaa4
     ce4:	49 ff fc b6 	jal 650 <tiny_printf>
     ce8:	84 00       	movi55 $r0,#0x0
     cea:	48 ff ff 85 	j bf4 <OTA_LITTLEFS_find_and_check+0x48>
     cee:	92 00       	nop16

00000cf0 <OTA_LIEELEFS_find_and_update>:
     cf0:	3a 6f ba bc 	smw.adm $r6,[$sp],$r14,#0xa    ! {$r6~$r14, $fp, $lp}
     cf4:	ee 94       	addi10.sp #-364
     cf6:	46 43 00 25 	sethi $r4,#0x30025
     cfa:	58 42 00 00 	ori $r4,$r4,#0x0
     cfe:	3e 08 2b 68 	addi.gp $r0,#0x2b68
     d02:	b0 43       	addri36.sp $r1,#0xc
     d04:	44 20 0a 54 	movi $r2,#0xa54
     d08:	84 61       	movi55 $r3,#0x1
     d0a:	f4 82       	swi37.sp $r4,[+#0x8]
     d0c:	49 00 36 8e 	jal 7a28 <lfs_file_open>
     d10:	4e 05 00 94 	bltz $r0,e38 <OTA_LIEELEFS_find_and_update+0x148>
     d14:	50 1f 80 0c 	addi $r1,$sp,#0xc
     d18:	3e 08 2b 68 	addi.gp $r0,#0x2b68
     d1c:	49 00 34 cc 	jal 76b4 <lfs_file_close>
     d20:	3e 08 2b 68 	addi.gp $r0,#0x2b68
     d24:	b0 43       	addri36.sp $r1,#0xc
     d26:	44 20 0a 9c 	movi $r2,#0xa9c
     d2a:	84 61       	movi55 $r3,#0x1
     d2c:	49 00 36 7e 	jal 7a28 <lfs_file_open>
     d30:	4e 05 00 8e 	bltz $r0,e4c <OTA_LIEELEFS_find_and_update+0x15c>
     d34:	44 10 0a 9c 	movi $r1,#0xa9c
     d38:	50 2f 80 60 	addi $r2,$sp,#0x60
     d3c:	3e 08 2b 68 	addi.gp $r0,#0x2b68
     d40:	49 00 26 34 	jal 59a8 <lfs_stat>
     d44:	04 ef 80 02 	lwi $r14,[$sp+#0x8]
     d48:	04 cf 80 19 	lwi $r12,[$sp+#0x64]
     d4c:	40 e7 20 08 	slli $r14,$r14,#0x8
     d50:	40 e7 20 09 	srli $r14,$r14,#0x8
     d54:	14 cf 80 00 	swi $r12,[$sp+#0x0]
     d58:	44 00 0a b4 	movi $r0,#0xab4
     d5c:	41 c7 30 00 	add $fp,$r14,$r12
     d60:	49 ff fc 78 	jal 650 <tiny_printf>
     d64:	40 07 70 06 	slt $r0,$r14,$fp
     d68:	81 6e       	mov55 $r11,$r14
     d6a:	44 d0 04 00 	movi $r13,#0x400
     d6e:	c0 43       	beqz38 $r0,df4 <OTA_LIEELEFS_find_and_update+0x104>
     d70:	40 66 b0 06 	slt $r6,$r13,$r12
     d74:	80 0d       	mov55 $r0,$r13
     d76:	40 06 18 1a 	cmovz $r0,$r12,$r6
     d7a:	80 c0       	mov55 $r6,$r0
     d7c:	f0 81       	swi37.sp $r0,[+#0x4]
     d7e:	b7 7f       	swi450 $r11,[$sp]
     d80:	44 00 0a d0 	movi $r0,#0xad0
     d84:	49 ff fc 66 	jal 650 <tiny_printf>
     d88:	3e 08 2b 68 	addi.gp $r0,#0x2b68
     d8c:	b0 43       	addri36.sp $r1,#0xc
     d8e:	3e 28 2c 28 	addi.gp $r2,#0x2c28
     d92:	80 66       	mov55 $r3,$r6
     d94:	49 00 2c 92 	jal 66b8 <lfs_file_read>
     d98:	81 40       	mov55 $r10,$r0
     d9a:	4c 03 40 3f 	bne $r0,$r6,e18 <OTA_LIEELEFS_find_and_update+0x128>
     d9e:	e3 6e       	slt45 $r11,$r14
     da0:	e9 24       	bnezs8 de8 <OTA_LIEELEFS_find_and_update+0xf8>
     da2:	54 05 8f ff 	andi $r0,$r11,#0xfff
     da6:	c0 35       	beqz38 $r0,e10 <OTA_LIEELEFS_find_and_update+0x120>
     da8:	4e a2 00 20 	beqz $r10,de8 <OTA_LIEELEFS_find_and_update+0xf8>
     dac:	3e 88 2c 28 	addi.gp $r8,#0x2c28
     db0:	80 eb       	mov55 $r7,$r11
     db2:	80 ca       	mov55 $r6,$r10
     db4:	85 20       	movi55 $r9,#0x0
     db6:	92 00       	nop16
     db8:	5c f3 01 00 	slti $r15,$r6,#0x100
     dbc:	80 07       	mov55 $r0,$r7
     dbe:	44 10 01 00 	movi $r1,#0x100
     dc2:	80 48       	mov55 $r2,$r8
     dc4:	e8 04       	beqzs8 dcc <OTA_LIEELEFS_find_and_update+0xdc>
     dc6:	80 07       	mov55 $r0,$r7
     dc8:	80 26       	mov55 $r1,$r6
     dca:	80 48       	mov55 $r2,$r8
     dcc:	50 94 81 00 	addi $r9,$r9,#0x100
     dd0:	49 ff fb d0 	jal 570 <ota_flash_page_program>
     dd4:	40 14 a8 06 	slt $r1,$r9,$r10
     dd8:	50 63 7f 00 	addi $r6,$r6,#-256
     ddc:	50 73 81 00 	addi $r7,$r7,#0x100
     de0:	50 84 01 00 	addi $r8,$r8,#0x100
     de4:	c9 ea       	bnez38 $r1,db8 <OTA_LIEELEFS_find_and_update+0xc8>
     de6:	92 00       	nop16
     de8:	50 b5 84 00 	addi $r11,$r11,#0x400
     dec:	e3 7c       	slt45 $r11,$fp
     dee:	50 c6 7c 00 	addi $r12,$r12,#-1024
     df2:	e9 bf       	bnezs8 d70 <OTA_LIEELEFS_find_and_update+0x80>
     df4:	44 00 00 e4 	movi $r0,#0xe4
     df8:	49 ff fc 2c 	jal 650 <tiny_printf>
     dfc:	b0 43       	addri36.sp $r1,#0xc
     dfe:	3e 08 2b 68 	addi.gp $r0,#0x2b68
     e02:	49 00 34 59 	jal 76b4 <lfs_file_close>
     e06:	84 01       	movi55 $r0,#0x1
     e08:	ed 6c       	addi10.sp #0x16c
     e0a:	3a 6f ba 84 	lmw.bim $r6,[$sp],$r14,#0xa    ! {$r6~$r14, $fp, $lp}
     e0e:	dd 9e       	ret5 $lp
     e10:	80 0b       	mov55 $r0,$r11
     e12:	49 ff fb 79 	jal 504 <ota_flash_sector_erase>
     e16:	d5 c9       	j8 da8 <OTA_LIEELEFS_find_and_update+0xb8>
     e18:	b7 7f       	swi450 $r11,[$sp]
     e1a:	44 00 0a e4 	movi $r0,#0xae4
     e1e:	49 ff fc 19 	jal 650 <tiny_printf>
     e22:	b0 43       	addri36.sp $r1,#0xc
     e24:	3e 08 2b 68 	addi.gp $r0,#0x2b68
     e28:	49 00 34 46 	jal 76b4 <lfs_file_close>
     e2c:	84 00       	movi55 $r0,#0x0
     e2e:	ed 6c       	addi10.sp #0x16c
     e30:	3a 6f ba 84 	lmw.bim $r6,[$sp],$r14,#0xa    ! {$r6~$r14, $fp, $lp}
     e34:	dd 9e       	ret5 $lp
     e36:	92 00       	nop16
     e38:	44 00 0a 64 	movi $r0,#0xa64
     e3c:	49 ff fc 0a 	jal 650 <tiny_printf>
     e40:	84 00       	movi55 $r0,#0x0
     e42:	ed 6c       	addi10.sp #0x16c
     e44:	3a 6f ba 84 	lmw.bim $r6,[$sp],$r14,#0xa    ! {$r6~$r14, $fp, $lp}
     e48:	dd 9e       	ret5 $lp
     e4a:	92 00       	nop16
     e4c:	44 00 0a a4 	movi $r0,#0xaa4
     e50:	49 ff fc 00 	jal 650 <tiny_printf>
     e54:	84 00       	movi55 $r0,#0x0
     e56:	ed 6c       	addi10.sp #0x16c
     e58:	3a 6f ba 84 	lmw.bim $r6,[$sp],$r14,#0xa    ! {$r6~$r14, $fp, $lp}
     e5c:	dd 9e       	ret5 $lp
     e5e:	92 00       	nop16

00000e60 <drv_uart_tx_0>:
     e60:	3b ff fc bc 	smw.adm $sp,[$sp],$sp,#0x2    ! {$lp}
     e64:	ef f4       	addi10.sp #-12
     e66:	84 21       	movi55 $r1,#0x1
     e68:	10 0f 80 07 	sbi $r0,[$sp+#0x7]
     e6c:	44 20 00 01 	movi $r2,#0x1
     e70:	50 0f 80 07 	addi $r0,$sp,#0x7
     e74:	49 00 02 76 	jal 1360 <drv_comport_write_fifo>
     e78:	ec 0c       	addi10.sp #0xc
     e7a:	3b ff fc 84 	lmw.bim $sp,[$sp],$sp,#0x2    ! {$lp}
     e7e:	dd 9e       	ret5 $lp

00000e80 <Cli_Init>:
     e80:	3a 6f 98 bc 	smw.adm $r6,[$sp],$r6,#0x2    ! {$r6, $lp}
     e84:	84 20       	movi55 $r1,#0x0
     e86:	fa 44       	movpi45 $r2,#0x14
     e88:	3e 08 01 b0 	addi.gp $r0,#0x1b0
     e8c:	49 00 48 94 	jal 9fb4 <memset>
     e90:	84 20       	movi55 $r1,#0x0
     e92:	84 00       	movi55 $r0,#0x0
     e94:	3e 10 01 c8 	sbi.gp $r1,[+#0x1c8]
     e98:	3c 0e 00 6a 	swi.gp $r0,[+#0x1a8]
     e9c:	3c 0e 00 6b 	swi.gp $r0,[+#0x1ac]
     ea0:	3a 6f 98 84 	lmw.bim $r6,[$sp],$r6,#0x2    ! {$r6, $lp}
     ea4:	dd 9e       	ret5 $lp
     ea6:	92 00       	nop16
     ea8:	72 65 61 64 	*unknown*
     eac:	20 66 61 6c 	lbsi $r6,[$r12+#-7828]
     eb0:	69 73 0a 00 	*unknown*
     eb4:	0a 45 52 52 	lhi.bi $r4,[$r10],#-23388
     eb8:	4f 52 3a 2d 	beqz $r21,8312 <Cmd_Meta_restore+0xf6>
     ebc:	31 0a 00 00 	flsi $fs16,[$r20+#0x0]
     ec0:	0a 25 73 00 	lhi.bi $r2,[$r10],#-6656
     ec4:	3f 3e 00 00 	addi.gp $r19,#-131072
     ec8:	0a 0a 55 73 	lhi.bi $r0,[$r20],#-21786
     ecc:	61 67 65 3a 	amtbsl2.s $d0,$r14,$r25,[$i2],[$i6],$m2,$m7
     ed0:	0a 00 00 00 	lhi.bi $r0,[$r0],#0x0
     ed4:	25 2d 32 30 	*unknown*
     ed8:	73 09 09 25 	*unknown*
     edc:	73 0a 00 00 	*unknown*

00000ee0 <getDatafromUart>:
     ee0:	3a 6f 98 bc 	smw.adm $r6,[$sp],$r6,#0x2    ! {$r6, $lp}
     ee4:	44 20 00 01 	movi $r2,#0x1
     ee8:	49 00 02 4a 	jal 137c <drv_comport_read_fifo>
     eec:	4e 07 00 08 	blez $r0,efc <getDatafromUart+0x1c>
     ef0:	44 00 00 00 	movi $r0,#0x0
     ef4:	3a 6f 98 84 	lmw.bim $r6,[$sp],$r6,#0x2    ! {$r6, $lp}
     ef8:	4a 00 78 20 	ret $lp
     efc:	44 00 0e a8 	movi $r0,#0xea8
     f00:	49 00 0a 9c 	jal 2438 <printf>
     f04:	84 1f       	movi55 $r0,#-1
     f06:	d5 f7       	j8 ef4 <getDatafromUart+0x14>

00000f08 <Cli_Start>:
     f08:	3a 6f a0 bc 	smw.adm $r6,[$sp],$r8,#0x2    ! {$r6~$r8, $lp}
     f0c:	51 ff ff f0 	addi $sp,$sp,#-16
     f10:	46 00 00 08 	sethi $r0,#0x8
     f14:	3e 88 01 c8 	addi.gp $r8,#0x1c8
     f18:	04 60 01 10 	lwi $r6,[$r0+#0x440]
     f1c:	50 0f 80 0b 	addi $r0,$sp,#0xb
     f20:	84 21       	movi55 $r1,#0x1
     f22:	84 41       	movi55 $r2,#0x1
     f24:	49 00 02 2c 	jal 137c <drv_comport_read_fifo>
     f28:	4e 07 01 10 	blez $r0,1148 <Cli_Start+0x240>
     f2c:	00 0f 80 0b 	lbi $r0,[$sp+#0xb]
     f30:	5a 00 0d 30 	beqc $r0,#0xd,f90 <Cli_Start+0x88>
     f34:	e6 0e       	slti45 $r0,#0xe
     f36:	e9 27       	bnezs8 f84 <Cli_Start+0x7c>
     f38:	5a 08 3f 04 	bnec $r0,#0x3f,f40 <Cli_Start+0x38>
     f3c:	48 00 00 ea 	j 1110 <Cli_Start+0x208>
     f40:	5a 08 7f 04 	bnec $r0,#0x7f,f48 <Cli_Start+0x40>
     f44:	48 00 00 c0 	j 10c4 <Cli_Start+0x1bc>
     f48:	5a 00 1b ea 	beqc $r0,#0x1b,f1c <Cli_Start+0x14>
     f4c:	3c 4c 00 6a 	lwi.gp $r4,[+#0x1a8]
     f50:	5c f2 07 ff 	slti $r15,$r4,#0x7ff
     f54:	e8 e4       	beqzs8 f1c <Cli_Start+0x14>
     f56:	96 c2       	seb33 $r3,$r0
     f58:	9d 61       	addi333 $r5,$r4,#0x1
     f5a:	38 34 10 08 	sb $r3,[$r8+($r4<<#0x0)]
     f5e:	3c 5e 00 6a 	swi.gp $r5,[+#0x1a8]
     f62:	50 0f 80 0f 	addi $r0,$sp,#0xf
     f66:	84 80       	movi55 $r4,#0x0
     f68:	84 21       	movi55 $r1,#0x1
     f6a:	84 41       	movi55 $r2,#0x1
     f6c:	38 44 14 08 	sb $r4,[$r8+($r5<<#0x0)]
     f70:	10 3f 80 0f 	sbi $r3,[$sp+#0xf]
     f74:	49 00 01 f6 	jal 1360 <drv_comport_write_fifo>
     f78:	3c 0c 00 1c 	lwi.gp $r0,[+#0x70]
     f7c:	49 00 47 0e 	jal 9d98 <fflush>
     f80:	d5 ce       	j8 f1c <Cli_Start+0x14>
     f82:	92 00       	nop16
     f84:	5a 08 08 04 	bnec $r0,#0x8,f8c <Cli_Start+0x84>
     f88:	48 00 00 9e 	j 10c4 <Cli_Start+0x1bc>
     f8c:	5a 08 0a e0 	bnec $r0,#0xa,f4c <Cli_Start+0x44>
     f90:	3e 08 01 c8 	addi.gp $r0,#0x1c8
     f94:	49 00 49 5a 	jal a248 <strlen>
     f98:	4e 03 00 e4 	bnez $r0,1160 <Cli_Start+0x258>
     f9c:	2e 28 01 c8 	lbsi.gp $r2,[+#0x1c8]
     fa0:	84 00       	movi55 $r0,#0x0
     fa2:	3c 0e 00 6b 	swi.gp $r0,[+#0x1ac]
     fa6:	10 0f 80 0b 	sbi $r0,[$sp+#0xb]
     faa:	c2 51       	beqz38 $r2,104c <Cli_Start+0x144>
     fac:	84 20       	movi55 $r1,#0x0
     fae:	86 00       	movi55 $r16,#0x0
     fb0:	84 60       	movi55 $r3,#0x0
     fb2:	84 a0       	movi55 $r5,#0x0
     fb4:	3e 08 01 c8 	addi.gp $r0,#0x1c8
     fb8:	86 40       	movi55 $r18,#0x0
     fba:	3f 18 01 b0 	addi.gp $r17,#0x1b0
     fbe:	92 00       	nop16
     fc0:	4e 33 00 72 	bnez $r3,10a4 <Cli_Start+0x19c>
     fc4:	5a 28 20 04 	bnec $r2,#0x20,fcc <Cli_Start+0xc4>
     fc8:	48 00 00 7a 	j 10bc <Cli_Start+0x1b4>
     fcc:	38 08 86 0a 	sw $r0,[$r17+($r1<<#0x2)]
     fd0:	45 00 00 01 	movi $r16,#0x1
     fd4:	20 20 00 00 	lbsi $r2,[$r0+#0x0]
     fd8:	5a 28 3d 04 	bnec $r2,#0x3d,fe0 <Cli_Start+0xd8>
     fdc:	48 00 00 ae 	j 1138 <Cli_Start+0x230>
     fe0:	5a 20 2c 4a 	beqc $r2,#0x2c,1074 <Cli_Start+0x16c>
     fe4:	80 70       	mov55 $r3,$r16
     fe6:	80 a1       	mov55 $r5,$r1
     fe8:	20 20 00 01 	lbsi $r2,[$r0+#0x1]
     fec:	8c 01       	addi45 $r0,#0x1
     fee:	c2 4f       	beqz38 $r2,108c <Cli_Start+0x184>
     ff0:	e6 26       	slti45 $r1,#0x6
     ff2:	e9 e7       	bnezs8 fc0 <Cli_Start+0xb8>
     ff4:	46 20 01 00 	sethi $r2,#0x100
     ff8:	11 0f 80 0b 	sbi $r16,[$sp+#0xb]
     ffc:	3c 1e 00 6b 	swi.gp $r1,[+#0x1ac]
    1000:	5a 38 01 04 	bnec $r3,#0x1,1008 <Cli_Start+0x100>
    1004:	48 00 00 e0 	j 11c4 <Cli_Start+0x2bc>
    1008:	fa 30       	movpi45 $r1,#0x20
    100a:	10 10 7f ff 	sbi $r1,[$r0+#-1]
    100e:	80 26       	mov55 $r1,$r6
    1010:	4e 62 00 e2 	beqz $r6,11d4 <Cli_Start+0x2cc>
    1014:	44 70 84 40 	movi $r7,#0x8440
    1018:	d5 06       	j8 1024 <Cli_Start+0x11c>
    101a:	8c ec       	addi45 $r7,#0xc
    101c:	b4 27       	lwi450 $r1,[$r7]
    101e:	4e 12 00 db 	beqz $r1,11d4 <Cli_Start+0x2cc>
    1022:	92 00       	nop16
    1024:	3c 0c 00 6c 	lwi.gp $r0,[+#0x1b0]
    1028:	49 00 48 ec 	jal a200 <strcmp>
    102c:	4e 03 ff f7 	bnez $r0,101a <Cli_Start+0x112>
    1030:	44 00 00 e4 	movi $r0,#0xe4
    1034:	49 00 0a 02 	jal 2438 <printf>
    1038:	3c 0c 00 6b 	lwi.gp $r0,[+#0x1ac]
    103c:	a0 b9       	lwi333 $r2,[$r7+#0x4]
    103e:	8e 01       	subi45 $r0,#0x1
    1040:	3e 18 01 b4 	addi.gp $r1,#0x1b4
    1044:	dd 22       	jral5 $r2
    1046:	b4 07       	lwi450 $r0,[$r7]
    1048:	4e 02 00 c6 	beqz $r0,11d4 <Cli_Start+0x2cc>
    104c:	44 00 0e c4 	movi $r0,#0xec4
    1050:	b6 1f       	swi450 $r0,[$sp]
    1052:	44 00 0e c0 	movi $r0,#0xec0
    1056:	49 00 09 f1 	jal 2438 <printf>
    105a:	84 20       	movi55 $r1,#0x0
    105c:	3e 08 01 c8 	addi.gp $r0,#0x1c8
    1060:	44 20 08 01 	movi $r2,#0x801
    1064:	49 00 47 a8 	jal 9fb4 <memset>
    1068:	84 00       	movi55 $r0,#0x0
    106a:	3c 0e 00 6a 	swi.gp $r0,[+#0x1a8]
    106e:	48 ff ff 57 	j f1c <Cli_Start+0x14>
    1072:	92 00       	nop16
    1074:	4e 12 00 6e 	beqz $r1,1150 <Cli_Start+0x248>
    1078:	20 20 00 01 	lbsi $r2,[$r0+#0x1]
    107c:	8c 21       	addi45 $r1,#0x1
    107e:	11 20 00 00 	sbi $r18,[$r0+#0x0]
    1082:	80 a1       	mov55 $r5,$r1
    1084:	86 00       	movi55 $r16,#0x0
    1086:	84 60       	movi55 $r3,#0x0
    1088:	8c 01       	addi45 $r0,#0x1
    108a:	ca b3       	bnez38 $r2,ff0 <Cli_Start+0xe8>
    108c:	46 20 01 00 	sethi $r2,#0x100
    1090:	11 0f 80 0b 	sbi $r16,[$sp+#0xb]
    1094:	3c 1e 00 6b 	swi.gp $r1,[+#0x1ac]
    1098:	5a 38 01 04 	bnec $r3,#0x1,10a0 <Cli_Start+0x198>
    109c:	48 00 00 94 	j 11c4 <Cli_Start+0x2bc>
    10a0:	c9 b4       	bnez38 $r1,1008 <Cli_Start+0x100>
    10a2:	d5 d5       	j8 104c <Cli_Start+0x144>
    10a4:	5a 30 01 04 	beqc $r3,#0x1,10ac <Cli_Start+0x1a4>
    10a8:	48 ff ff 9f 	j fe6 <Cli_Start+0xde>
    10ac:	5a 20 20 04 	beqc $r2,#0x20,10b4 <Cli_Start+0x1ac>
    10b0:	48 ff ff 92 	j fd4 <Cli_Start+0xcc>
    10b4:	11 20 00 00 	sbi $r18,[$r0+#0x0]
    10b8:	9c 69       	addi333 $r1,$r5,#0x1
    10ba:	86 00       	movi55 $r16,#0x0
    10bc:	80 a1       	mov55 $r5,$r1
    10be:	84 60       	movi55 $r3,#0x0
    10c0:	48 ff ff 94 	j fe8 <Cli_Start+0xe0>
    10c4:	3c 0c 00 6a 	lwi.gp $r0,[+#0x1a8]
    10c8:	4e 02 ff 2a 	beqz $r0,f1c <Cli_Start+0x14>
    10cc:	9e c1       	subi333 $r3,$r0,#0x1
    10ce:	84 e8       	movi55 $r7,#0x8
    10d0:	3c 3e 00 6a 	swi.gp $r3,[+#0x1a8]
    10d4:	b0 03       	addri36.sp $r0,#0xc
    10d6:	84 80       	movi55 $r4,#0x0
    10d8:	84 21       	movi55 $r1,#0x1
    10da:	84 41       	movi55 $r2,#0x1
    10dc:	38 44 0c 08 	sb $r4,[$r8+($r3<<#0x0)]
    10e0:	10 7f 80 0c 	sbi $r7,[$sp+#0xc]
    10e4:	49 00 01 3e 	jal 1360 <drv_comport_write_fifo>
    10e8:	fa 70       	movpi45 $r3,#0x20
    10ea:	50 0f 80 0d 	addi $r0,$sp,#0xd
    10ee:	84 21       	movi55 $r1,#0x1
    10f0:	44 20 00 01 	movi $r2,#0x1
    10f4:	10 3f 80 0d 	sbi $r3,[$sp+#0xd]
    10f8:	49 00 01 34 	jal 1360 <drv_comport_write_fifo>
    10fc:	50 0f 80 0e 	addi $r0,$sp,#0xe
    1100:	84 21       	movi55 $r1,#0x1
    1102:	84 41       	movi55 $r2,#0x1
    1104:	10 7f 80 0e 	sbi $r7,[$sp+#0xe]
    1108:	49 00 01 2c 	jal 1360 <drv_comport_write_fifo>
    110c:	48 ff ff 08 	j f1c <Cli_Start+0x14>
    1110:	3c 2c 00 6a 	lwi.gp $r2,[+#0x1a8]
    1114:	c2 30       	beqz38 $r2,1174 <Cli_Start+0x26c>
    1116:	3c 1c 00 01 	lwi.gp $r1,[+#0x4]
    111a:	8e 21       	subi45 $r1,#0x1
    111c:	e2 41       	slt45 $r2,$r1
    111e:	4e f2 fe ff 	beqz $r15,f1c <Cli_Start+0x14>
    1122:	9c 51       	addi333 $r1,$r2,#0x1
    1124:	38 04 08 08 	sb $r0,[$r8+($r2<<#0x0)]
    1128:	3c 1e 00 6a 	swi.gp $r1,[+#0x1a8]
    112c:	84 00       	movi55 $r0,#0x0
    112e:	38 04 04 08 	sb $r0,[$r8+($r1<<#0x0)]
    1132:	48 ff fe f5 	j f1c <Cli_Start+0x14>
    1136:	92 00       	nop16
    1138:	4e 13 ff 56 	bnez $r1,fe4 <Cli_Start+0xdc>
    113c:	ae 40       	sbi333 $r1,[$r0+#0x0]
    113e:	86 00       	movi55 $r16,#0x0
    1140:	84 21       	movi55 $r1,#0x1
    1142:	84 60       	movi55 $r3,#0x0
    1144:	48 ff ff 51 	j fe6 <Cli_Start+0xde>
    1148:	ec 10       	addi10.sp #0x10
    114a:	3a 6f a0 84 	lmw.bim $r6,[$sp],$r8,#0x2    ! {$r6~$r8, $lp}
    114e:	dd 9e       	ret5 $lp
    1150:	20 20 00 01 	lbsi $r2,[$r0+#0x1]
    1154:	8c 01       	addi45 $r0,#0x1
    1156:	c2 49       	beqz38 $r2,11e8 <Cli_Start+0x2e0>
    1158:	80 70       	mov55 $r3,$r16
    115a:	84 a0       	movi55 $r5,#0x0
    115c:	48 ff ff 32 	j fc0 <Cli_Start+0xb8>
    1160:	3e 08 01 c8 	addi.gp $r0,#0x1c8
    1164:	49 00 48 72 	jal a248 <strlen>
    1168:	44 10 00 00 	movi $r1,#0x0
    116c:	38 14 00 08 	sb $r1,[$r8+($r0<<#0x0)]
    1170:	48 ff ff 16 	j f9c <Cli_Start+0x94>
    1174:	44 00 0e c8 	movi $r0,#0xec8
    1178:	49 00 09 60 	jal 2438 <printf>
    117c:	46 00 00 08 	sethi $r0,#0x8
    1180:	04 00 01 10 	lwi $r0,[$r0+#0x440]
    1184:	44 70 84 40 	movi $r7,#0x8440
    1188:	c8 05       	bnez38 $r0,1192 <Cli_Start+0x28a>
    118a:	d5 13       	j8 11b0 <Cli_Start+0x2a8>
    118c:	8c ec       	addi45 $r7,#0xc
    118e:	b4 07       	lwi450 $r0,[$r7]
    1190:	c0 10       	beqz38 $r0,11b0 <Cli_Start+0x2a8>
    1192:	a0 3a       	lwi333 $r0,[$r7+#0x8]
    1194:	49 00 48 5a 	jal a248 <strlen>
    1198:	c0 fa       	beqz38 $r0,118c <Cli_Start+0x284>
    119a:	a0 3a       	lwi333 $r0,[$r7+#0x8]
    119c:	b4 27       	lwi450 $r1,[$r7]
    119e:	b6 3f       	swi450 $r1,[$sp]
    11a0:	f0 81       	swi37.sp $r0,[+#0x4]
    11a2:	8c ec       	addi45 $r7,#0xc
    11a4:	44 00 0e d4 	movi $r0,#0xed4
    11a8:	49 00 09 48 	jal 2438 <printf>
    11ac:	b4 07       	lwi450 $r0,[$r7]
    11ae:	c8 f2       	bnez38 $r0,1192 <Cli_Start+0x28a>
    11b0:	44 00 0e c4 	movi $r0,#0xec4
    11b4:	14 0f 80 00 	swi $r0,[$sp+#0x0]
    11b8:	44 00 0e c0 	movi $r0,#0xec0
    11bc:	49 00 09 3e 	jal 2438 <printf>
    11c0:	48 ff fe ae 	j f1c <Cli_Start+0x14>
    11c4:	8c 21       	addi45 $r1,#0x1
    11c6:	3c 1e 00 6b 	swi.gp $r1,[+#0x1ac]
    11ca:	4e 12 ff 41 	beqz $r1,104c <Cli_Start+0x144>
    11ce:	48 ff ff 20 	j 100e <Cli_Start+0x106>
    11d2:	92 00       	nop16
    11d4:	3c 0c 00 6a 	lwi.gp $r0,[+#0x1a8]
    11d8:	4e 02 ff 3a 	beqz $r0,104c <Cli_Start+0x144>
    11dc:	44 00 0e b4 	movi $r0,#0xeb4
    11e0:	49 00 09 2c 	jal 2438 <printf>
    11e4:	48 ff ff 34 	j 104c <Cli_Start+0x144>
    11e8:	11 0f 80 0b 	sbi $r16,[$sp+#0xb]
    11ec:	3c 1e 00 6b 	swi.gp $r1,[+#0x1ac]
    11f0:	5b 00 01 04 	beqc $r16,#0x1,11f8 <Cli_Start+0x2f0>
    11f4:	48 ff ff 2c 	j 104c <Cli_Start+0x144>
    11f8:	3d 0e 00 6b 	swi.gp $r16,[+#0x1ac]
    11fc:	48 ff ff 09 	j 100e <Cli_Start+0x106>

00001200 <comport_uart_register_isr>:
    1200:	48 00 39 84 	j 8508 <hal_uart_register_isr>

00001204 <comport_uart_init>:
    1204:	48 00 39 a2 	j 8548 <hal_uart_init>

00001208 <comport_uart_deinit>:
    1208:	48 00 39 b6 	j 8574 <hal_uart_deinit>

0000120c <comport_uart_set_format>:
    120c:	48 00 39 b8 	j 857c <hal_uart_set_format>

00001210 <comport_uart_write_fifo>:
    1210:	48 00 39 de 	j 85cc <hal_uart_write_fifo>

00001214 <comport_uart_read_fifo>:
    1214:	48 00 3a 30 	j 8674 <hal_uart_read_fifo>

00001218 <comport_uart_sw_rst>:
    1218:	48 00 3a 62 	j 86dc <hal_uart_sw_rst>

0000121c <comport_uart_get_line_status>:
    121c:	48 00 3a 66 	j 86e8 <hal_uart_get_line_status>

00001220 <comport_uart_is_receiver_available>:
    1220:	3a 6f 98 bc 	smw.adm $r6,[$sp],$r6,#0x2    ! {$r6, $lp}
    1224:	49 00 3a 62 	jal 86e8 <hal_uart_get_line_status>
    1228:	96 04       	xlsb33 $r0,$r0
    122a:	3a 6f 98 84 	lmw.bim $r6,[$sp],$r6,#0x2    ! {$r6, $lp}
    122e:	dd 9e       	ret5 $lp

00001230 <comport_uart_is_transmitter_idle>:
    1230:	3a 6f 98 bc 	smw.adm $r6,[$sp],$r6,#0x2    ! {$r6, $lp}
    1234:	49 00 3a 5a 	jal 86e8 <hal_uart_get_line_status>
    1238:	42 00 18 0b 	btst $r0,$r0,#0x6
    123c:	3a 6f 98 84 	lmw.bim $r6,[$sp],$r6,#0x2    ! {$r6, $lp}
    1240:	dd 9e       	ret5 $lp
    1242:	92 00       	nop16

00001244 <comport_uart_direct_read_byte>:
    1244:	48 00 39 be 	j 85c0 <hal_uart_direct_read_byte>

00001248 <comport_hsuart_register_isr>:
    1248:	80 60       	mov55 $r3,$r0
    124a:	80 41       	mov55 $r2,$r1
    124c:	2e 00 09 cc 	lbi.gp $r0,[+#0x9cc]
    1250:	80 23       	mov55 $r1,$r3
    1252:	48 00 3a cd 	j 87ec <hal_hsuart_register_isr_ex>
    1256:	92 00       	nop16

00001258 <comport_hsuart_init>:
    1258:	2e 00 09 cc 	lbi.gp $r0,[+#0x9cc]
    125c:	48 00 3a ec 	j 8834 <hal_hsuart_init_ex>

00001260 <comport_hsuart_deinit>:
    1260:	2e 00 09 cc 	lbi.gp $r0,[+#0x9cc]
    1264:	48 00 3b 04 	j 886c <hal_hsuart_deinit_ex>

00001268 <comport_hsuart_set_format>:
    1268:	82 20       	mov55 $r17,$r0
    126a:	82 01       	mov55 $r16,$r1
    126c:	80 a2       	mov55 $r5,$r2
    126e:	80 83       	mov55 $r4,$r3
    1270:	2e 00 09 cc 	lbi.gp $r0,[+#0x9cc]
    1274:	80 31       	mov55 $r1,$r17
    1276:	80 50       	mov55 $r2,$r16
    1278:	80 65       	mov55 $r3,$r5
    127a:	48 00 3b 03 	j 8880 <hal_hsuart_set_format_ex>
    127e:	92 00       	nop16

00001280 <comport_hsuart_write_fifo>:
    1280:	80 a0       	mov55 $r5,$r0
    1282:	80 81       	mov55 $r4,$r1
    1284:	80 62       	mov55 $r3,$r2
    1286:	2e 00 09 cc 	lbi.gp $r0,[+#0x9cc]
    128a:	80 25       	mov55 $r1,$r5
    128c:	80 44       	mov55 $r2,$r4
    128e:	48 00 3b 2f 	j 88ec <hal_hsuart_write_fifo_ex>
    1292:	92 00       	nop16

00001294 <comport_hsuart_read_fifo>:
    1294:	80 a0       	mov55 $r5,$r0
    1296:	80 81       	mov55 $r4,$r1
    1298:	80 62       	mov55 $r3,$r2
    129a:	2e 00 09 cc 	lbi.gp $r0,[+#0x9cc]
    129e:	80 25       	mov55 $r1,$r5
    12a0:	80 44       	mov55 $r2,$r4
    12a2:	48 00 3b 77 	j 8990 <hal_hsuart_read_fifo_ex>
    12a6:	92 00       	nop16

000012a8 <comport_hsuart_sw_rst>:
    12a8:	2e 00 09 cc 	lbi.gp $r0,[+#0x9cc]
    12ac:	48 00 3b a8 	j 89fc <hal_hsuart_sw_rst_ex>

000012b0 <comport_hsuart_get_line_status>:
    12b0:	2e 00 09 cc 	lbi.gp $r0,[+#0x9cc]
    12b4:	48 00 3b b4 	j 8a1c <hal_hsuart_get_line_status_ex>

000012b8 <comport_hsuart_is_receiver_available>:
    12b8:	3a 6f 98 bc 	smw.adm $r6,[$sp],$r6,#0x2    ! {$r6, $lp}
    12bc:	2e 00 09 cc 	lbi.gp $r0,[+#0x9cc]
    12c0:	49 00 3b ae 	jal 8a1c <hal_hsuart_get_line_status_ex>
    12c4:	96 04       	xlsb33 $r0,$r0
    12c6:	3a 6f 98 84 	lmw.bim $r6,[$sp],$r6,#0x2    ! {$r6, $lp}
    12ca:	dd 9e       	ret5 $lp

000012cc <comport_hsuart_is_transmitter_idle>:
    12cc:	3a 6f 98 bc 	smw.adm $r6,[$sp],$r6,#0x2    ! {$r6, $lp}
    12d0:	2e 00 09 cc 	lbi.gp $r0,[+#0x9cc]
    12d4:	49 00 3b a4 	jal 8a1c <hal_hsuart_get_line_status_ex>
    12d8:	42 00 18 0b 	btst $r0,$r0,#0x6
    12dc:	3a 6f 98 84 	lmw.bim $r6,[$sp],$r6,#0x2    ! {$r6, $lp}
    12e0:	dd 9e       	ret5 $lp
    12e2:	92 00       	nop16

000012e4 <comport_hsuart_direct_read_byte>:
    12e4:	2e 00 09 cc 	lbi.gp $r0,[+#0x9cc]
    12e8:	48 00 3b a0 	j 8a28 <hal_hsuart_direct_read_byte_ex>

000012ec <drv_comport_init>:
    12ec:	3b ff fc bc 	smw.adm $sp,[$sp],$sp,#0x2    ! {$lp}
    12f0:	ef f4       	addi10.sp #-12
    12f2:	3c 1c 02 74 	lwi.gp $r1,[+#0x9d0]
    12f6:	c1 05       	beqz38 $r1,1300 <drv_comport_init+0x14>
    12f8:	a0 4a       	lwi333 $r1,[$r1+#0x8]
    12fa:	f0 81       	swi37.sp $r0,[+#0x4]
    12fc:	dd 21       	jral5 $r1
    12fe:	f0 01       	lwi37.sp $r0,[+#0x4]
    1300:	c8 10       	bnez38 $r0,1320 <drv_comport_init+0x34>
    1302:	3e 08 00 34 	addi.gp $r0,#0x34
    1306:	3c 0e 02 74 	swi.gp $r0,[+#0x9d0]
    130a:	a0 01       	lwi333 $r0,[$r0+#0x4]
    130c:	4b e0 00 01 	jral $lp,$r0
    1310:	3c 0c 02 74 	lwi.gp $r0,[+#0x9d0]
    1314:	a0 06       	lwi333 $r0,[$r0+#0x18]
    1316:	dd 20       	jral5 $r0
    1318:	ec 0c       	addi10.sp #0xc
    131a:	3b ff fc 84 	lmw.bim $sp,[$sp],$sp,#0x2    ! {$lp}
    131e:	dd 9e       	ret5 $lp
    1320:	5a 00 01 0a 	beqc $r0,#0x1,1334 <drv_comport_init+0x48>
    1324:	84 00       	movi55 $r0,#0x0
    1326:	3c 0e 02 74 	swi.gp $r0,[+#0x9d0]
    132a:	ec 0c       	addi10.sp #0xc
    132c:	3b ff fc 84 	lmw.bim $sp,[$sp],$sp,#0x2    ! {$lp}
    1330:	4a 00 78 20 	ret $lp
    1334:	3e 08 00 08 	addi.gp $r0,#0x8
    1338:	3c 0e 02 74 	swi.gp $r0,[+#0x9d0]
    133c:	84 20       	movi55 $r1,#0x0
    133e:	3e 10 09 cc 	sbi.gp $r1,[+#0x9cc]
    1342:	d5 e4       	j8 130a <drv_comport_init+0x1e>

00001344 <drv_comport_set_format>:
    1344:	3c 4c 02 74 	lwi.gp $r4,[+#0x9d0]
    1348:	c4 09       	beqz38 $r4,135a <drv_comport_set_format+0x16>
    134a:	3a 6f 98 bc 	smw.adm $r6,[$sp],$r6,#0x2    ! {$r6, $lp}
    134e:	a1 23       	lwi333 $r4,[$r4+#0xc]
    1350:	4b e0 10 01 	jral $lp,$r4
    1354:	3a 6f 98 84 	lmw.bim $r6,[$sp],$r6,#0x2    ! {$r6, $lp}
    1358:	dd 9e       	ret5 $lp
    135a:	84 1f       	movi55 $r0,#-1
    135c:	dd 9e       	ret5 $lp
    135e:	92 00       	nop16

00001360 <drv_comport_write_fifo>:
    1360:	3c 3c 02 74 	lwi.gp $r3,[+#0x9d0]
    1364:	c3 09       	beqz38 $r3,1376 <drv_comport_write_fifo+0x16>
    1366:	3a 6f 98 bc 	smw.adm $r6,[$sp],$r6,#0x2    ! {$r6, $lp}
    136a:	a0 dc       	lwi333 $r3,[$r3+#0x10]
    136c:	4b e0 0c 01 	jral $lp,$r3
    1370:	3a 6f 98 84 	lmw.bim $r6,[$sp],$r6,#0x2    ! {$r6, $lp}
    1374:	dd 9e       	ret5 $lp
    1376:	84 1f       	movi55 $r0,#-1
    1378:	dd 9e       	ret5 $lp
    137a:	92 00       	nop16

0000137c <drv_comport_read_fifo>:
    137c:	3c 3c 02 74 	lwi.gp $r3,[+#0x9d0]
    1380:	c3 09       	beqz38 $r3,1392 <drv_comport_read_fifo+0x16>
    1382:	3a 6f 98 bc 	smw.adm $r6,[$sp],$r6,#0x2    ! {$r6, $lp}
    1386:	a0 dd       	lwi333 $r3,[$r3+#0x14]
    1388:	4b e0 0c 01 	jral $lp,$r3
    138c:	3a 6f 98 84 	lmw.bim $r6,[$sp],$r6,#0x2    ! {$r6, $lp}
    1390:	dd 9e       	ret5 $lp
    1392:	84 1f       	movi55 $r0,#-1
    1394:	dd 9e       	ret5 $lp
    1396:	92 00       	nop16

00001398 <_out_null>:
    1398:	dd 9e       	ret5 $lp
    139a:	92 00       	nop16

0000139c <_ntoa_format>:
    139c:	3a 6f ba bc 	smw.adm $r6,[$sp],$r14,#0xa    ! {$r6~$r14, $fp, $lp}
    13a0:	ef fc       	addi10.sp #-4
    13a2:	05 0f 80 10 	lwi $r16,[$sp+#0x40]
    13a6:	81 a2       	mov55 $r13,$r2
    13a8:	55 c8 00 02 	andi $fp,$r16,#0x2
    13ac:	80 e4       	mov55 $r7,$r4
    13ae:	fd 40       	movd44 $r8,$r0
    13b0:	81 43       	mov55 $r10,$r3
    13b2:	00 4f 80 30 	lbi $r4,[$sp+#0x30]
    13b6:	f2 0e       	lwi37.sp $r2,[+#0x38]
    13b8:	04 cf 80 0f 	lwi $r12,[$sp+#0x3c]
    13bc:	4f c3 00 32 	bnez $fp,1420 <_ntoa_format+0x84>
    13c0:	e2 a2       	slt45 $r5,$r2
    13c2:	e8 11       	beqzs8 13e4 <_ntoa_format+0x48>
    13c4:	5c f2 80 20 	slti $r15,$r5,#0x20
    13c8:	e8 0e       	beqzs8 13e4 <_ntoa_format+0x48>
    13ca:	98 3d       	add333 $r0,$r7,$r5
    13cc:	44 30 00 30 	movi $r3,#0x30
    13d0:	d5 04       	j8 13d8 <_ntoa_format+0x3c>
    13d2:	92 00       	nop16
    13d4:	5a 50 20 08 	beqc $r5,#0x20,13e4 <_ntoa_format+0x48>
    13d8:	8c a1       	addi45 $r5,#0x1
    13da:	e2 a2       	slt45 $r5,$r2
    13dc:	18 30 00 01 	sbi.bi $r3,[$r0],#0x1
    13e0:	4e f3 ff fa 	bnez $r15,13d4 <_ntoa_format+0x38>
    13e4:	54 08 00 01 	andi $r0,$r16,#0x1
    13e8:	c0 1c       	beqz38 $r0,1420 <_ntoa_format+0x84>
    13ea:	e2 ac       	slt45 $r5,$r12
    13ec:	e8 1a       	beqzs8 1420 <_ntoa_format+0x84>
    13ee:	5c f2 80 20 	slti $r15,$r5,#0x20
    13f2:	4e f2 00 f3 	beqz $r15,15d8 <_ntoa_format+0x23c>
    13f6:	44 00 00 30 	movi $r0,#0x30
    13fa:	9d a9       	addi333 $r6,$r5,#0x1
    13fc:	38 03 94 08 	sb $r0,[$r7+($r5<<#0x0)]
    1400:	44 10 00 30 	movi $r1,#0x30
    1404:	98 3e       	add333 $r0,$r7,$r6
    1406:	d5 09       	j8 1418 <_ntoa_format+0x7c>
    1408:	5a 68 20 04 	bnec $r6,#0x20,1410 <_ntoa_format+0x74>
    140c:	48 00 00 b0 	j 156c <_ntoa_format+0x1d0>
    1410:	8c c1       	addi45 $r6,#0x1
    1412:	18 10 00 01 	sbi.bi $r1,[$r0],#0x1
    1416:	92 00       	nop16
    1418:	4c 66 7f f8 	bne $r6,$r12,1408 <_ntoa_format+0x6c>
    141c:	80 ac       	mov55 $r5,$r12
    141e:	92 00       	nop16
    1420:	54 08 00 10 	andi $r0,$r16,#0x10
    1424:	4e 02 00 64 	beqz $r0,14ec <_ntoa_format+0x150>
    1428:	54 08 04 00 	andi $r0,$r16,#0x400
    142c:	4e 02 00 86 	beqz $r0,1538 <_ntoa_format+0x19c>
    1430:	04 0f 80 0d 	lwi $r0,[$sp+#0x34]
    1434:	5a 08 10 04 	bnec $r0,#0x10,143c <_ntoa_format+0xa0>
    1438:	48 00 00 a4 	j 1580 <_ntoa_format+0x1e4>
    143c:	04 0f 80 0d 	lwi $r0,[$sp+#0x34]
    1440:	5a 08 02 04 	bnec $r0,#0x2,1448 <_ntoa_format+0xac>
    1444:	48 00 00 b0 	j 15a4 <_ntoa_format+0x208>
    1448:	5c f2 80 20 	slti $r15,$r5,#0x20
    144c:	4e f2 00 8d 	beqz $r15,1566 <_ntoa_format+0x1ca>
    1450:	44 00 00 30 	movi $r0,#0x30
    1454:	9d a9       	addi333 $r6,$r5,#0x1
    1456:	38 03 94 08 	sb $r0,[$r7+($r5<<#0x0)]
    145a:	92 00       	nop16
    145c:	4c 66 00 54 	beq $r6,$r12,1504 <_ntoa_format+0x168>
    1460:	5c f3 00 20 	slti $r15,$r6,#0x20
    1464:	4e f3 00 c1 	bnez $r15,15e6 <_ntoa_format+0x24a>
    1468:	54 f8 00 03 	andi $r15,$r16,#0x3
    146c:	e9 49       	bnezs8 14fe <_ntoa_format+0x162>
    146e:	92 00       	nop16
    1470:	e2 cc       	slt45 $r6,$r12
    1472:	80 4d       	mov55 $r2,$r13
    1474:	40 e3 34 01 	sub $r14,$r6,$r13
    1478:	e8 12       	beqzs8 149c <_ntoa_format+0x100>
    147a:	92 00       	nop16
    147c:	50 b1 00 01 	addi $r11,$r2,#0x1
    1480:	fa 10       	movpi45 $r0,#0x20
    1482:	80 29       	mov55 $r1,$r9
    1484:	80 6a       	mov55 $r3,$r10
    1486:	dd 28       	jral5 $r8
    1488:	40 07 2c 00 	add $r0,$r14,$r11
    148c:	40 00 30 06 	slt $r0,$r0,$r12
    1490:	80 4b       	mov55 $r2,$r11
    1492:	c8 f5       	bnez38 $r0,147c <_ntoa_format+0xe0>
    1494:	40 56 b0 00 	add $r5,$r13,$r12
    1498:	9a ae       	sub333 $r2,$r5,$r6
    149a:	92 00       	nop16
    149c:	4e 62 00 90 	beqz $r6,15bc <_ntoa_format+0x220>
    14a0:	9f 71       	subi333 $r5,$r6,#0x1
    14a2:	88 e5       	add45 $r7,$r5
    14a4:	88 c2       	add45 $r6,$r2
    14a6:	92 00       	nop16
    14a8:	50 b1 00 01 	addi $r11,$r2,#0x1
    14ac:	28 03 ff ff 	lbsi.bi $r0,[$r7],#-1
    14b0:	80 29       	mov55 $r1,$r9
    14b2:	80 6a       	mov55 $r3,$r10
    14b4:	dd 28       	jral5 $r8
    14b6:	80 4b       	mov55 $r2,$r11
    14b8:	4c b3 7f f8 	bne $r11,$r6,14a8 <_ntoa_format+0x10c>
    14bc:	4f c2 00 12 	beqz $fp,14e0 <_ntoa_format+0x144>
    14c0:	40 03 34 01 	sub $r0,$r6,$r13
    14c4:	e2 0c       	slt45 $r0,$r12
    14c6:	e8 0d       	beqzs8 14e0 <_ntoa_format+0x144>
    14c8:	80 46       	mov55 $r2,$r6
    14ca:	8c c1       	addi45 $r6,#0x1
    14cc:	fa 10       	movpi45 $r0,#0x20
    14ce:	80 29       	mov55 $r1,$r9
    14d0:	80 6a       	mov55 $r3,$r10
    14d2:	dd 28       	jral5 $r8
    14d4:	40 43 34 01 	sub $r4,$r6,$r13
    14d8:	40 42 30 06 	slt $r4,$r4,$r12
    14dc:	80 46       	mov55 $r2,$r6
    14de:	cc f6       	bnez38 $r4,14ca <_ntoa_format+0x12e>
    14e0:	80 06       	mov55 $r0,$r6
    14e2:	ec 04       	addi10.sp #0x4
    14e4:	3a 6f ba 84 	lmw.bim $r6,[$sp],$r14,#0xa    ! {$r6~$r14, $fp, $lp}
    14e8:	dd 9e       	ret5 $lp
    14ea:	92 00       	nop16
    14ec:	cd 3d       	bnez38 $r5,1566 <_ntoa_format+0x1ca>
    14ee:	c4 13       	beqz38 $r4,1514 <_ntoa_format+0x178>
    14f0:	fa 1d       	movpi45 $r0,#0x2d
    14f2:	54 f8 00 03 	andi $r15,$r16,#0x3
    14f6:	9d a9       	addi333 $r6,$r5,#0x1
    14f8:	38 03 94 08 	sb $r0,[$r7+($r5<<#0x0)]
    14fc:	e8 ba       	beqzs8 1470 <_ntoa_format+0xd4>
    14fe:	80 4d       	mov55 $r2,$r13
    1500:	d5 d0       	j8 14a0 <_ntoa_format+0x104>
    1502:	92 00       	nop16
    1504:	cc 4d       	bnez38 $r4,159e <_ntoa_format+0x202>
    1506:	54 08 00 0c 	andi $r0,$r16,#0xc
    150a:	c8 4a       	bnez38 $r0,159e <_ntoa_format+0x202>
    150c:	5c f3 00 20 	slti $r15,$r6,#0x20
    1510:	e8 f7       	beqzs8 14fe <_ntoa_format+0x162>
    1512:	80 ac       	mov55 $r5,$r12
    1514:	54 08 00 04 	andi $r0,$r16,#0x4
    1518:	c8 1e       	bnez38 $r0,1554 <_ntoa_format+0x1b8>
    151a:	54 08 00 08 	andi $r0,$r16,#0x8
    151e:	80 c5       	mov55 $r6,$r5
    1520:	c0 06       	beqz38 $r0,152c <_ntoa_format+0x190>
    1522:	fa 10       	movpi45 $r0,#0x20
    1524:	8c c1       	addi45 $r6,#0x1
    1526:	38 03 94 08 	sb $r0,[$r7+($r5<<#0x0)]
    152a:	92 00       	nop16
    152c:	54 f8 00 03 	andi $r15,$r16,#0x3
    1530:	80 4d       	mov55 $r2,$r13
    1532:	e9 b5       	bnezs8 149c <_ntoa_format+0x100>
    1534:	d5 9e       	j8 1470 <_ntoa_format+0xd4>
    1536:	92 00       	nop16
    1538:	4e 52 ff 7c 	beqz $r5,1430 <_ntoa_format+0x94>
    153c:	d2 03       	beqs38 $r2,1542 <_ntoa_format+0x1a6>
    153e:	4c 56 7f 79 	bne $r5,$r12,1430 <_ntoa_format+0x94>
    1542:	9e 29       	subi333 $r0,$r5,#0x1
    1544:	c0 47       	beqz38 $r0,15d2 <_ntoa_format+0x236>
    1546:	f1 0d       	lwi37.sp $r1,[+#0x34]
    1548:	8e a2       	subi45 $r5,#0x2
    154a:	5a 10 10 1b 	beqc $r1,#0x10,1580 <_ntoa_format+0x1e4>
    154e:	80 a0       	mov55 $r5,$r0
    1550:	48 ff ff 76 	j 143c <_ntoa_format+0xa0>
    1554:	fa 1b       	movpi45 $r0,#0x2b
    1556:	9d a9       	addi333 $r6,$r5,#0x1
    1558:	38 03 94 08 	sb $r0,[$r7+($r5<<#0x0)]
    155c:	d5 e8       	j8 152c <_ntoa_format+0x190>
    155e:	92 00       	nop16
    1560:	5c f2 80 20 	slti $r15,$r5,#0x20
    1564:	e9 30       	bnezs8 15c4 <_ntoa_format+0x228>
    1566:	80 c5       	mov55 $r6,$r5
    1568:	48 ff ff 7a 	j 145c <_ntoa_format+0xc0>
    156c:	54 08 00 10 	andi $r0,$r16,#0x10
    1570:	4e 02 ff 76 	beqz $r0,145c <_ntoa_format+0xc0>
    1574:	54 08 04 00 	andi $r0,$r16,#0x400
    1578:	fa b0       	movpi45 $r5,#0x20
    157a:	c0 e1       	beqz38 $r0,153c <_ntoa_format+0x1a0>
    157c:	48 ff ff 5a 	j 1430 <_ntoa_format+0x94>
    1580:	54 08 00 20 	andi $r0,$r16,#0x20
    1584:	c8 ee       	bnez38 $r0,1560 <_ntoa_format+0x1c4>
    1586:	5c f2 80 20 	slti $r15,$r5,#0x20
    158a:	80 c5       	mov55 $r6,$r5
    158c:	4e f2 ff 68 	beqz $r15,145c <_ntoa_format+0xc0>
    1590:	44 00 00 78 	movi $r0,#0x78
    1594:	38 03 94 08 	sb $r0,[$r7+($r5<<#0x0)]
    1598:	8c a1       	addi45 $r5,#0x1
    159a:	48 ff ff 57 	j 1448 <_ntoa_format+0xac>
    159e:	8e c1       	subi45 $r6,#0x1
    15a0:	48 ff ff 60 	j 1460 <_ntoa_format+0xc4>
    15a4:	5c f2 80 20 	slti $r15,$r5,#0x20
    15a8:	80 c5       	mov55 $r6,$r5
    15aa:	4e f2 ff 59 	beqz $r15,145c <_ntoa_format+0xc0>
    15ae:	44 00 00 62 	movi $r0,#0x62
    15b2:	38 03 94 08 	sb $r0,[$r7+($r5<<#0x0)]
    15b6:	8c a1       	addi45 $r5,#0x1
    15b8:	48 ff ff 48 	j 1448 <_ntoa_format+0xac>
    15bc:	80 c2       	mov55 $r6,$r2
    15be:	48 ff ff 7f 	j 14bc <_ntoa_format+0x120>
    15c2:	92 00       	nop16
    15c4:	44 00 00 58 	movi $r0,#0x58
    15c8:	38 03 94 08 	sb $r0,[$r7+($r5<<#0x0)]
    15cc:	8c a1       	addi45 $r5,#0x1
    15ce:	48 ff ff 3d 	j 1448 <_ntoa_format+0xac>
    15d2:	84 a0       	movi55 $r5,#0x0
    15d4:	48 ff ff 2e 	j 1430 <_ntoa_format+0x94>
    15d8:	54 08 00 10 	andi $r0,$r16,#0x10
    15dc:	4e 03 ff 26 	bnez $r0,1428 <_ntoa_format+0x8c>
    15e0:	80 c5       	mov55 $r6,$r5
    15e2:	48 ff ff 3d 	j 145c <_ntoa_format+0xc0>
    15e6:	80 a6       	mov55 $r5,$r6
    15e8:	c4 96       	beqz38 $r4,1514 <_ntoa_format+0x178>
    15ea:	d5 83       	j8 14f0 <_ntoa_format+0x154>

000015ec <_ntoa_long>:
    15ec:	3b ff fc bc 	smw.adm $sp,[$sp],$sp,#0x2    ! {$lp}
    15f0:	ef c4       	addi10.sp #-60
    15f2:	05 3f 80 10 	lwi $r19,[$sp+#0x40]
    15f6:	05 7f 80 13 	lwi $r23,[$sp+#0x4c]
    15fa:	cc 07       	bnez38 $r4,1608 <_ntoa_long+0x1c>
    15fc:	54 fb 84 00 	andi $r15,$r23,#0x400
    1600:	67 7b 80 10 	bitci $r23,$r23,#0x10
    1604:	4e f3 00 3a 	bnez $r15,1678 <_ntoa_long+0x8c>
    1608:	51 8f 80 18 	addi $r24,$sp,#0x18
    160c:	55 0b 80 20 	andi $r16,$r23,#0x20
    1610:	45 10 00 61 	movi $r17,#0x61
    1614:	45 60 00 41 	movi $r22,#0x41
    1618:	82 b8       	mov55 $r21,$r24
    161a:	86 80       	movi55 $r20,#0x0
    161c:	41 68 c0 1a 	cmovz $r22,$r17,$r16
    1620:	d5 04       	j8 1628 <_ntoa_long+0x3c>
    1622:	92 00       	nop16
    1624:	5b 40 20 19 	beqc $r20,#0x20,1656 <_ntoa_long+0x6a>
    1628:	41 12 4e 17 	divr $r17,$r16,$r4,$r19
    162c:	41 28 00 10 	seb $r18,$r16
    1630:	51 18 7f f6 	addi $r17,$r16,#-10
    1634:	e5 ca       	sltsi45 $r18,#0xa
    1636:	51 08 00 30 	addi $r16,$r16,#0x30
    163a:	89 b6       	add45 $r17,$r22
    163c:	51 4a 00 01 	addi $r20,$r20,#0x1
    1640:	41 08 00 10 	seb $r16,$r16
    1644:	4e f3 00 04 	bnez $r15,164c <_ntoa_long+0x60>
    1648:	41 08 80 10 	seb $r16,$r17
    164c:	40 42 4c 97 	divr $r4,$r4,$r4,$r19
    1650:	19 0a 80 01 	sbi.bi $r16,[$r21],#0x1
    1654:	cc e8       	bnez38 $r4,1624 <_ntoa_long+0x38>
    1656:	f4 11       	lwi37.sp $r4,[+#0x44]
    1658:	f4 82       	swi37.sp $r4,[+#0x8]
    165a:	f4 12       	lwi37.sp $r4,[+#0x48]
    165c:	b6 bf       	swi450 $r5,[$sp]
    165e:	f4 83       	swi37.sp $r4,[+#0xc]
    1660:	15 3f 80 01 	swi $r19,[$sp+#0x4]
    1664:	15 7f 80 04 	swi $r23,[$sp+#0x10]
    1668:	80 98       	mov55 $r4,$r24
    166a:	80 b4       	mov55 $r5,$r20
    166c:	49 ff fe 98 	jal 139c <_ntoa_format>
    1670:	ec 3c       	addi10.sp #0x3c
    1672:	3b ff fc 84 	lmw.bim $sp,[$sp],$sp,#0x2    ! {$lp}
    1676:	dd 9e       	ret5 $lp
    1678:	86 80       	movi55 $r20,#0x0
    167a:	51 8f 80 18 	addi $r24,$sp,#0x18
    167e:	d5 ec       	j8 1656 <_ntoa_long+0x6a>

00001680 <_ntoa_long_long>:
    1680:	3a 6f ba bc 	smw.adm $r6,[$sp],$r14,#0xa    ! {$r6~$r14, $fp, $lp}
    1684:	ef b4       	addi10.sp #-76
    1686:	36 3f 80 0e 	fsdi $fd3,[$sp+#0x38]
    168a:	36 4f 80 10 	fsdi $fd4,[$sp+#0x40]
    168e:	fd 52       	movd44 $r10,$r4
    1690:	80 a4       	mov55 $r5,$r4
    1692:	80 8b       	mov55 $r4,$r11
    1694:	ff 2f       	or33 $r4,$r5
    1696:	6a 04 00 09 	fmtsr $r0,$fs8
    169a:	6a 13 80 09 	fmtsr $r1,$fs7
    169e:	6a 23 00 09 	fmtsr $r2,$fs6
    16a2:	83 83       	mov55 $fp,$r3
    16a4:	f6 20       	lwi37.sp $r6,[+#0x80]
    16a6:	f7 21       	lwi37.sp $r7,[+#0x84]
    16a8:	04 8f 80 24 	lwi $r8,[$sp+#0x90]
    16ac:	cc 06       	bnez38 $r4,16b8 <_ntoa_long_long+0x38>
    16ae:	54 04 04 00 	andi $r0,$r8,#0x400
    16b2:	66 84 00 10 	bitci $r8,$r8,#0x10
    16b6:	c8 4d       	bnez38 $r0,1750 <_ntoa_long_long+0xd0>
    16b8:	50 ef 80 18 	addi $r14,$sp,#0x18
    16bc:	54 54 00 20 	andi $r5,$r8,#0x20
    16c0:	44 00 00 61 	movi $r0,#0x61
    16c4:	44 d0 00 41 	movi $r13,#0x41
    16c8:	81 8e       	mov55 $r12,$r14
    16ca:	85 20       	movi55 $r9,#0x0
    16cc:	40 d0 14 1a 	cmovz $r13,$r0,$r5
    16d0:	d5 04       	j8 16d8 <_ntoa_long_long+0x58>
    16d2:	92 00       	nop16
    16d4:	5a 90 20 20 	beqc $r9,#0x20,1714 <_ntoa_long_long+0x94>
    16d8:	fd 05       	movd44 $r0,$r10
    16da:	fd 13       	movd44 $r2,$r6
    16dc:	49 00 3b 16 	jal 8d08 <__umoddi3>
    16e0:	41 20 00 10 	seb $r18,$r0
    16e4:	51 10 7f f6 	addi $r17,$r0,#-10
    16e8:	51 00 00 30 	addi $r16,$r0,#0x30
    16ec:	5e 09 00 0a 	sltsi $r0,$r18,#0xa
    16f0:	89 ad       	add45 $r17,$r13
    16f2:	8d 21       	addi45 $r9,#0x1
    16f4:	41 08 00 10 	seb $r16,$r16
    16f8:	c8 03       	bnez38 $r0,16fe <_ntoa_long_long+0x7e>
    16fa:	41 08 80 10 	seb $r16,$r17
    16fe:	fd 05       	movd44 $r0,$r10
    1700:	19 06 00 01 	sbi.bi $r16,[$r12],#0x1
    1704:	fd 13       	movd44 $r2,$r6
    1706:	49 00 3a 27 	jal 8b54 <__udivdi3>
    170a:	fd 50       	movd44 $r10,$r0
    170c:	40 00 2c 04 	or $r0,$r0,$r11
    1710:	c8 e2       	bnez38 $r0,16d4 <_ntoa_long_long+0x54>
    1712:	92 00       	nop16
    1714:	00 0f 80 78 	lbi $r0,[$sp+#0x78]
    1718:	b6 1f       	swi450 $r0,[$sp]
    171a:	f0 22       	lwi37.sp $r0,[+#0x88]
    171c:	f0 82       	swi37.sp $r0,[+#0x8]
    171e:	f0 23       	lwi37.sp $r0,[+#0x8c]
    1720:	f0 83       	swi37.sp $r0,[+#0xc]
    1722:	6a 13 80 01 	fmfsr $r1,$fs7
    1726:	6a 04 00 01 	fmfsr $r0,$fs8
    172a:	6a 23 00 01 	fmfsr $r2,$fs6
    172e:	f6 81       	swi37.sp $r6,[+#0x4]
    1730:	14 8f 80 04 	swi $r8,[$sp+#0x10]
    1734:	80 7c       	mov55 $r3,$fp
    1736:	80 8e       	mov55 $r4,$r14
    1738:	50 54 80 00 	addi $r5,$r9,#0x0
    173c:	49 ff fe 30 	jal 139c <_ntoa_format>
    1740:	ec 38       	addi10.sp #0x38
    1742:	34 3f 90 02 	fldi.bi $fd3,[$sp],#0x8
    1746:	34 4f 90 03 	fldi.bi $fd4,[$sp],#0xc
    174a:	3a 6f ba 84 	lmw.bim $r6,[$sp],$r14,#0xa    ! {$r6~$r14, $fp, $lp}
    174e:	dd 9e       	ret5 $lp
    1750:	85 20       	movi55 $r9,#0x0
    1752:	50 ef 80 18 	addi $r14,$sp,#0x18
    1756:	d5 df       	j8 1714 <_ntoa_long_long+0x94>

00001758 <_out_char>:
    1758:	c0 0c       	beqz38 $r0,1770 <_out_char+0x18>
    175a:	3a 6f 98 bc 	smw.adm $r6,[$sp],$r6,#0x2    ! {$r6, $lp}
    175e:	80 c0       	mov55 $r6,$r0
    1760:	5a 00 0a 09 	beqc $r0,#0xa,1772 <_out_char+0x1a>
    1764:	80 06       	mov55 $r0,$r6
    1766:	3a 6f 98 84 	lmw.bim $r6,[$sp],$r6,#0x2    ! {$r6, $lp}
    176a:	48 ff fb 7b 	j e60 <drv_uart_tx_0>
    176e:	92 00       	nop16
    1770:	dd 9e       	ret5 $lp
    1772:	84 0d       	movi55 $r0,#0xd
    1774:	49 ff fb 76 	jal e60 <drv_uart_tx_0>
    1778:	d5 f6       	j8 1764 <_out_char+0xc>
    177a:	92 00       	nop16

0000177c <_vsnprintf>:
    177c:	3a 6f ba bc 	smw.adm $r6,[$sp],$r14,#0xa    ! {$r6~$r14, $fp, $lp}
    1780:	ef 5c       	addi10.sp #-164
    1782:	36 3f 80 1a 	fsdi $fd3,[$sp+#0x68]
    1786:	36 4f 80 1c 	fsdi $fd4,[$sp+#0x70]
    178a:	36 5f 80 1e 	fsdi $fd5,[$sp+#0x78]
    178e:	36 6f 80 20 	fsdi $fd6,[$sp+#0x80]
    1792:	36 7f 80 22 	fsdi $fd7,[$sp+#0x88]
    1796:	36 8f 80 24 	fsdi $fd8,[$sp+#0x90]
    179a:	36 9f 80 26 	fsdi $fd9,[$sp+#0x98]
    179e:	44 70 13 98 	movi $r7,#0x1398
    17a2:	40 70 04 1b 	cmovn $r7,$r0,$r1
    17a6:	46 06 66 66 	sethi $r0,#0x66666
    17aa:	50 00 06 67 	addi $r0,$r0,#0x667
    17ae:	6a 08 00 09 	fmtsr $r0,$fs16
    17b2:	46 0c cc cc 	sethi $r0,#0xccccc
    17b6:	50 00 0c cd 	addi $r0,$r0,#0xccd
    17ba:	6a 03 80 09 	fmtsr $r0,$fs7
    17be:	81 c1       	mov55 $r14,$r1
    17c0:	80 c2       	mov55 $r6,$r2
    17c2:	81 a3       	mov55 $r13,$r3
    17c4:	83 84       	mov55 $fp,$r4
    17c6:	85 40       	movi55 $r10,#0x0
    17c8:	20 06 80 00 	lbsi $r0,[$r13+#0x0]
    17cc:	4e 02 00 10 	beqz $r0,17ec <_vsnprintf+0x70>
    17d0:	5a 00 25 2a 	beqc $r0,#0x25,1824 <_vsnprintf+0xa8>
    17d4:	80 4a       	mov55 $r2,$r10
    17d6:	80 2e       	mov55 $r1,$r14
    17d8:	80 66       	mov55 $r3,$r6
    17da:	50 d6 80 01 	addi $r13,$r13,#0x1
    17de:	dd 27       	jral5 $r7
    17e0:	20 06 80 00 	lbsi $r0,[$r13+#0x0]
    17e4:	50 85 00 01 	addi $r8,$r10,#0x1
    17e8:	81 48       	mov55 $r10,$r8
    17ea:	c8 f3       	bnez38 $r0,17d0 <_vsnprintf+0x54>
    17ec:	e3 46       	slt45 $r10,$r6
    17ee:	9e b1       	subi333 $r2,$r6,#0x1
    17f0:	40 25 3c 1b 	cmovn $r2,$r10,$r15
    17f4:	84 00       	movi55 $r0,#0x0
    17f6:	80 2e       	mov55 $r1,$r14
    17f8:	80 66       	mov55 $r3,$r6
    17fa:	dd 27       	jral5 $r7
    17fc:	80 0a       	mov55 $r0,$r10
    17fe:	ec 68       	addi10.sp #0x68
    1800:	34 3f 90 02 	fldi.bi $fd3,[$sp],#0x8
    1804:	34 4f 90 02 	fldi.bi $fd4,[$sp],#0x8
    1808:	34 5f 90 02 	fldi.bi $fd5,[$sp],#0x8
    180c:	34 6f 90 02 	fldi.bi $fd6,[$sp],#0x8
    1810:	34 7f 90 02 	fldi.bi $fd7,[$sp],#0x8
    1814:	34 8f 90 02 	fldi.bi $fd8,[$sp],#0x8
    1818:	34 9f 90 03 	fldi.bi $fd9,[$sp],#0xc
    181c:	3a 6f ba 84 	lmw.bim $r6,[$sp],$r14,#0xa    ! {$r6~$r14, $fp, $lp}
    1820:	dd 9e       	ret5 $lp
    1822:	92 00       	nop16
    1824:	50 16 80 01 	addi $r1,$r13,#0x1
    1828:	85 a0       	movi55 $r13,#0x0
    182a:	81 01       	mov55 $r8,$r1
    182c:	28 20 80 01 	lbsi.bi $r2,[$r1],#0x1
    1830:	50 31 7f e0 	addi $r3,$r2,#-32
    1834:	5c f1 80 11 	slti $r15,$r3,#0x11
    1838:	4e f3 01 3c 	bnez $r15,1ab0 <_vsnprintf+0x334>
    183c:	50 01 7f d0 	addi $r0,$r2,#-48
    1840:	96 00       	zeb33 $r0,$r0
    1842:	e6 0a       	slti45 $r0,#0xa
    1844:	80 68       	mov55 $r3,$r8
    1846:	80 02       	mov55 $r0,$r2
    1848:	4e f2 01 70 	beqz $r15,1b28 <_vsnprintf+0x3ac>
    184c:	50 24 00 01 	addi $r2,$r8,#0x1
    1850:	85 20       	movi55 $r9,#0x0
    1852:	84 aa       	movi55 $r5,#0xa
    1854:	42 04 94 73 	maddr32 $r0,$r9,$r5
    1858:	81 02       	mov55 $r8,$r2
    185a:	80 60       	mov55 $r3,$r0
    185c:	20 01 00 00 	lbsi $r0,[$r2+#0x0]
    1860:	50 91 ff d0 	addi $r9,$r3,#-48
    1864:	50 10 7f d0 	addi $r1,$r0,#-48
    1868:	96 48       	zeb33 $r1,$r1
    186a:	e6 2a       	slti45 $r1,#0xa
    186c:	8c 41       	addi45 $r2,#0x1
    186e:	e9 f3       	bnezs8 1854 <_vsnprintf+0xd8>
    1870:	44 b0 00 00 	movi $r11,#0x0
    1874:	5a 08 2e 04 	bnec $r0,#0x2e,187c <_vsnprintf+0x100>
    1878:	48 00 01 64 	j 1b40 <_vsnprintf+0x3c4>
    187c:	50 10 7f 98 	addi $r1,$r0,#-104
    1880:	e6 33       	slti45 $r1,#0x13
    1882:	e8 33       	beqzs8 18e8 <_vsnprintf+0x16c>
    1884:	44 f0 18 90 	movi $r15,#0x1890
    1888:	38 17 86 02 	lw $r1,[$r15+($r1<<#0x2)]
    188c:	4a 00 04 00 	jr $r1
    1890:	7c 1a 00 00 	*unknown*
    1894:	e8 18       	beqzs8 18c4 <_vsnprintf+0x148>
    1896:	00 00 0c 19 	lbi $r0,[$r0+#0xc19]
    189a:	00 00 e8 18 	lbi $r0,[$r1+#-6120]
    189e:	00 00 94 1a 	lbi $r0,[$r1+#0x141a]
    18a2:	00 00 e8 18 	lbi $r0,[$r1+#-6120]
    18a6:	00 00 e8 18 	lbi $r0,[$r1+#-6120]
    18aa:	00 00 e8 18 	lbi $r0,[$r1+#-6120]
    18ae:	00 00 e8 18 	lbi $r0,[$r1+#-6120]
    18b2:	00 00 e8 18 	lbi $r0,[$r1+#-6120]
    18b6:	00 00 e8 18 	lbi $r0,[$r1+#-6120]
    18ba:	00 00 e8 18 	lbi $r0,[$r1+#-6120]
    18be:	00 00 dc 18 	lbi $r0,[$r1+#-9192]
    18c2:	00 00 e8 18 	lbi $r0,[$r1+#-6120]
    18c6:	00 00 e8 18 	lbi $r0,[$r1+#-6120]
    18ca:	00 00 e8 18 	lbi $r0,[$r1+#-6120]
    18ce:	00 00 e8 18 	lbi $r0,[$r1+#-6120]
    18d2:	00 00 e8 18 	lbi $r0,[$r1+#-6120]
    18d6:	00 00 dc 18 	lbi $r0,[$r1+#-9192]
    18da:	00 00 20 04 	lbi $r0,[$r0+#0x2004]
    18de:	00 01 58 d6 	lbi $r0,[$r2+#-10026]
    18e2:	81 00       	mov55 $r8,$r0
    18e4:	8d 01       	addi45 $r8,#0x1
    18e6:	92 00       	nop16
    18e8:	50 10 7f db 	addi $r1,$r0,#-37
    18ec:	5c f0 80 54 	slti $r15,$r1,#0x54
    18f0:	e9 18       	bnezs8 1920 <_vsnprintf+0x1a4>
    18f2:	80 4a       	mov55 $r2,$r10
    18f4:	50 95 00 01 	addi $r9,$r10,#0x1
    18f8:	80 2e       	mov55 $r1,$r14
    18fa:	80 66       	mov55 $r3,$r6
    18fc:	4b e0 1c 01 	jral $lp,$r7
    1900:	50 d4 00 01 	addi $r13,$r8,#0x1
    1904:	81 49       	mov55 $r10,$r9
    1906:	48 ff ff 61 	j 17c8 <_vsnprintf+0x4c>
    190a:	92 00       	nop16
    190c:	20 04 00 01 	lbsi $r0,[$r8+#0x1]
    1910:	58 d6 82 00 	ori $r13,$r13,#0x200
    1914:	50 10 7f db 	addi $r1,$r0,#-37
    1918:	5c f0 80 54 	slti $r15,$r1,#0x54
    191c:	8d 01       	addi45 $r8,#0x1
    191e:	e8 ea       	beqzs8 18f2 <_vsnprintf+0x176>
    1920:	44 f0 19 2c 	movi $r15,#0x192c
    1924:	38 17 86 02 	lw $r1,[$r15+($r1<<#0x2)]
    1928:	4a 00 04 00 	jr $r1
    192c:	b0 1d       	addri36.sp $r0,#0x74
    192e:	00 00 f2 18 	lbi $r0,[$r1+#-3560]
    1932:	00 00 f2 18 	lbi $r0,[$r1+#-3560]
    1936:	00 00 f2 18 	lbi $r0,[$r1+#-3560]
    193a:	00 00 f2 18 	lbi $r0,[$r1+#-3560]
    193e:	00 00 f2 18 	lbi $r0,[$r1+#-3560]
    1942:	00 00 f2 18 	lbi $r0,[$r1+#-3560]
    1946:	00 00 f2 18 	lbi $r0,[$r1+#-3560]
    194a:	00 00 f2 18 	lbi $r0,[$r1+#-3560]
    194e:	00 00 f2 18 	lbi $r0,[$r1+#-3560]
    1952:	00 00 f2 18 	lbi $r0,[$r1+#-3560]
    1956:	00 00 f2 18 	lbi $r0,[$r1+#-3560]
    195a:	00 00 f2 18 	lbi $r0,[$r1+#-3560]
    195e:	00 00 f2 18 	lbi $r0,[$r1+#-3560]
    1962:	00 00 f2 18 	lbi $r0,[$r1+#-3560]
    1966:	00 00 f2 18 	lbi $r0,[$r1+#-3560]
    196a:	00 00 f2 18 	lbi $r0,[$r1+#-3560]
    196e:	00 00 f2 18 	lbi $r0,[$r1+#-3560]
    1972:	00 00 f2 18 	lbi $r0,[$r1+#-3560]
    1976:	00 00 f2 18 	lbi $r0,[$r1+#-3560]
    197a:	00 00 f2 18 	lbi $r0,[$r1+#-3560]
    197e:	00 00 f2 18 	lbi $r0,[$r1+#-3560]
    1982:	00 00 f2 18 	lbi $r0,[$r1+#-3560]
    1986:	00 00 f2 18 	lbi $r0,[$r1+#-3560]
    198a:	00 00 f2 18 	lbi $r0,[$r1+#-3560]
    198e:	00 00 f2 18 	lbi $r0,[$r1+#-3560]
    1992:	00 00 f2 18 	lbi $r0,[$r1+#-3560]
    1996:	00 00 f2 18 	lbi $r0,[$r1+#-3560]
    199a:	00 00 f2 18 	lbi $r0,[$r1+#-3560]
    199e:	00 00 f2 18 	lbi $r0,[$r1+#-3560]
    19a2:	00 00 f2 18 	lbi $r0,[$r1+#-3560]
    19a6:	00 00 f2 18 	lbi $r0,[$r1+#-3560]
    19aa:	00 00 f2 18 	lbi $r0,[$r1+#-3560]
    19ae:	00 00 44 1d 	lbi $r0,[$r0+#-15331]
    19b2:	00 00 f2 18 	lbi $r0,[$r1+#-3560]
    19b6:	00 00 f2 18 	lbi $r0,[$r1+#-3560]
    19ba:	00 00 f2 18 	lbi $r0,[$r1+#-3560]
    19be:	00 00 f2 18 	lbi $r0,[$r1+#-3560]
    19c2:	00 00 f2 18 	lbi $r0,[$r1+#-3560]
    19c6:	00 00 f2 18 	lbi $r0,[$r1+#-3560]
    19ca:	00 00 f2 18 	lbi $r0,[$r1+#-3560]
    19ce:	00 00 f2 18 	lbi $r0,[$r1+#-3560]
    19d2:	00 00 f2 18 	lbi $r0,[$r1+#-3560]
    19d6:	00 00 f2 18 	lbi $r0,[$r1+#-3560]
    19da:	00 00 f2 18 	lbi $r0,[$r1+#-3560]
    19de:	00 00 f2 18 	lbi $r0,[$r1+#-3560]
    19e2:	00 00 f2 18 	lbi $r0,[$r1+#-3560]
    19e6:	00 00 f2 18 	lbi $r0,[$r1+#-3560]
    19ea:	00 00 f2 18 	lbi $r0,[$r1+#-3560]
    19ee:	00 00 f2 18 	lbi $r0,[$r1+#-3560]
    19f2:	00 00 f2 18 	lbi $r0,[$r1+#-3560]
    19f6:	00 00 c8 1c 	lbi $r0,[$r1+#-14308]
    19fa:	00 00 f2 18 	lbi $r0,[$r1+#-3560]
    19fe:	00 00 f2 18 	lbi $r0,[$r1+#-3560]
    1a02:	00 00 f2 18 	lbi $r0,[$r1+#-3560]
    1a06:	00 00 f2 18 	lbi $r0,[$r1+#-3560]
    1a0a:	00 00 f2 18 	lbi $r0,[$r1+#-3560]
    1a0e:	00 00 f2 18 	lbi $r0,[$r1+#-3560]
    1a12:	00 00 f2 18 	lbi $r0,[$r1+#-3560]
    1a16:	00 00 f2 18 	lbi $r0,[$r1+#-3560]
    1a1a:	00 00 f2 18 	lbi $r0,[$r1+#-3560]
    1a1e:	00 00 c8 1c 	lbi $r0,[$r1+#-14308]
    1a22:	00 00 88 1c 	lbi $r0,[$r1+#0x81c]
    1a26:	00 00 c8 1c 	lbi $r0,[$r1+#-14308]
    1a2a:	00 00 f2 18 	lbi $r0,[$r1+#-3560]
    1a2e:	00 00 44 1d 	lbi $r0,[$r0+#-15331]
    1a32:	00 00 f2 18 	lbi $r0,[$r1+#-3560]
    1a36:	00 00 f2 18 	lbi $r0,[$r1+#-3560]
    1a3a:	00 00 c8 1c 	lbi $r0,[$r1+#-14308]
    1a3e:	00 00 f2 18 	lbi $r0,[$r1+#-3560]
    1a42:	00 00 f2 18 	lbi $r0,[$r1+#-3560]
    1a46:	00 00 f2 18 	lbi $r0,[$r1+#-3560]
    1a4a:	00 00 f2 18 	lbi $r0,[$r1+#-3560]
    1a4e:	00 00 f2 18 	lbi $r0,[$r1+#-3560]
    1a52:	00 00 c8 1c 	lbi $r0,[$r1+#-14308]
    1a56:	00 00 58 1c 	lbi $r0,[$r0+#-10212]
    1a5a:	00 00 f2 18 	lbi $r0,[$r1+#-3560]
    1a5e:	00 00 f2 18 	lbi $r0,[$r1+#-3560]
    1a62:	00 00 80 1b 	lbi $r0,[$r1+#0x1b]
    1a66:	00 00 f2 18 	lbi $r0,[$r1+#-3560]
    1a6a:	00 00 c8 1c 	lbi $r0,[$r1+#-14308]
    1a6e:	00 00 f2 18 	lbi $r0,[$r1+#-3560]
    1a72:	00 00 f2 18 	lbi $r0,[$r1+#-3560]
    1a76:	00 00 c8 1c 	lbi $r0,[$r1+#-14308]
    1a7a:	00 00 20 04 	lbi $r0,[$r0+#0x2004]
    1a7e:	00 01 5a 08 	lbi $r0,[$r2+#-9720]
    1a82:	68 04 48 00 	*unknown*
    1a86:	03 16 58 d6 	lhi $r17,[$r12+#-20052]
    1a8a:	80 80       	mov55 $r4,$r0
    1a8c:	8d 01       	addi45 $r8,#0x1
    1a8e:	48 ff ff 2d 	j 18e8 <_vsnprintf+0x16c>
    1a92:	92 00       	nop16
    1a94:	20 04 00 01 	lbsi $r0,[$r8+#0x1]
    1a98:	5a 00 6c 04 	beqc $r0,#0x6c,1aa0 <_vsnprintf+0x324>
    1a9c:	48 ff ff 22 	j 18e0 <_vsnprintf+0x164>
    1aa0:	20 04 00 02 	lbsi $r0,[$r8+#0x2]
    1aa4:	58 d6 83 00 	ori $r13,$r13,#0x300
    1aa8:	8d 02       	addi45 $r8,#0x2
    1aaa:	48 ff ff 1f 	j 18e8 <_vsnprintf+0x16c>
    1aae:	92 00       	nop16
    1ab0:	44 f0 1a bc 	movi $r15,#0x1abc
    1ab4:	38 37 8e 02 	lw $r3,[$r15+($r3<<#0x2)]
    1ab8:	4a 00 0c 00 	jr $r3
    1abc:	20 1b 00 00 	lbsi $r1,[$r22+#0x0]
    1ac0:	3c 18 00 00 	shi.gp $r1,[+#0x0]
    1ac4:	3c 18 00 00 	shi.gp $r1,[+#0x0]
    1ac8:	18 1b 00 00 	sbi.bi $r1,[$r22],#0x0
    1acc:	3c 18 00 00 	shi.gp $r1,[+#0x0]
    1ad0:	3c 18 00 00 	shi.gp $r1,[+#0x0]
    1ad4:	3c 18 00 00 	shi.gp $r1,[+#0x0]
    1ad8:	3c 18 00 00 	shi.gp $r1,[+#0x0]
    1adc:	3c 18 00 00 	shi.gp $r1,[+#0x0]
    1ae0:	3c 18 00 00 	shi.gp $r1,[+#0x0]
    1ae4:	3c 18 00 00 	shi.gp $r1,[+#0x0]
    1ae8:	10 1b 00 00 	sbi $r1,[$r22+#0x0]
    1aec:	3c 18 00 00 	shi.gp $r1,[+#0x0]
    1af0:	08 1b 00 00 	lbi.bi $r1,[$r22],#0x0
    1af4:	3c 18 00 00 	shi.gp $r1,[+#0x0]
    1af8:	3c 18 00 00 	shi.gp $r1,[+#0x0]
    1afc:	00 1b 00 00 	lbi $r1,[$r22+#0x0]
    1b00:	58 d6 80 01 	ori $r13,$r13,#0x1
    1b04:	48 ff fe 93 	j 182a <_vsnprintf+0xae>
    1b08:	58 d6 80 02 	ori $r13,$r13,#0x2
    1b0c:	48 ff fe 8f 	j 182a <_vsnprintf+0xae>
    1b10:	58 d6 80 04 	ori $r13,$r13,#0x4
    1b14:	48 ff fe 8b 	j 182a <_vsnprintf+0xae>
    1b18:	58 d6 80 10 	ori $r13,$r13,#0x10
    1b1c:	48 ff fe 87 	j 182a <_vsnprintf+0xae>
    1b20:	58 d6 80 08 	ori $r13,$r13,#0x8
    1b24:	48 ff fe 83 	j 182a <_vsnprintf+0xae>
    1b28:	5a 28 2a 04 	bnec $r2,#0x2a,1b30 <_vsnprintf+0x3b4>
    1b2c:	48 00 01 48 	j 1dbc <_vsnprintf+0x640>
    1b30:	80 02       	mov55 $r0,$r2
    1b32:	85 20       	movi55 $r9,#0x0
    1b34:	44 b0 00 00 	movi $r11,#0x0
    1b38:	5a 20 2e 04 	beqc $r2,#0x2e,1b40 <_vsnprintf+0x3c4>
    1b3c:	48 ff fe a0 	j 187c <_vsnprintf+0x100>
    1b40:	20 04 00 01 	lbsi $r0,[$r8+#0x1]
    1b44:	58 d6 84 00 	ori $r13,$r13,#0x400
    1b48:	50 10 7f d0 	addi $r1,$r0,#-48
    1b4c:	96 48       	zeb33 $r1,$r1
    1b4e:	e6 2a       	slti45 $r1,#0xa
    1b50:	50 24 00 01 	addi $r2,$r8,#0x1
    1b54:	4e f2 01 3e 	beqz $r15,1dd0 <_vsnprintf+0x654>
    1b58:	50 24 00 02 	addi $r2,$r8,#0x2
    1b5c:	84 6a       	movi55 $r3,#0xa
    1b5e:	92 00       	nop16
    1b60:	42 05 8c 73 	maddr32 $r0,$r11,$r3
    1b64:	81 02       	mov55 $r8,$r2
    1b66:	82 20       	mov55 $r17,$r0
    1b68:	20 01 00 00 	lbsi $r0,[$r2+#0x0]
    1b6c:	50 b8 ff d0 	addi $r11,$r17,#-48
    1b70:	50 10 7f d0 	addi $r1,$r0,#-48
    1b74:	96 48       	zeb33 $r1,$r1
    1b76:	e6 2a       	slti45 $r1,#0xa
    1b78:	8c 41       	addi45 $r2,#0x1
    1b7a:	e9 f3       	bnezs8 1b60 <_vsnprintf+0x3e4>
    1b7c:	48 ff fe 80 	j 187c <_vsnprintf+0x100>
    1b80:	30 8e 00 00 	flsi $fs8,[$fp+#0x0]
    1b84:	50 0e 00 04 	addi $r0,$fp,#0x4
    1b88:	6a 04 80 09 	fmtsr $r0,$fs9
    1b8c:	6a 04 00 01 	fmfsr $r0,$fs8
    1b90:	20 00 00 00 	lbsi $r0,[$r0+#0x0]
    1b94:	4e 02 04 0f 	beqz $r0,23b2 <_vsnprintf+0xc36>
    1b98:	6a 14 00 01 	fmfsr $r1,$fs8
    1b9c:	8c 21       	addi45 $r1,#0x1
    1b9e:	92 00       	nop16
    1ba0:	20 30 80 00 	lbsi $r3,[$r1+#0x0]
    1ba4:	80 41       	mov55 $r2,$r1
    1ba6:	8c 21       	addi45 $r1,#0x1
    1ba8:	cb fc       	bnez38 $r3,1ba0 <_vsnprintf+0x424>
    1baa:	6a 14 00 01 	fmfsr $r1,$fs8
    1bae:	9a 51       	sub333 $r1,$r2,$r1
    1bb0:	6a 15 00 09 	fmtsr $r1,$fs10
    1bb4:	54 c6 84 00 	andi $r12,$r13,#0x400
    1bb8:	4e c2 00 0c 	beqz $r12,1bd0 <_vsnprintf+0x454>
    1bbc:	6a 15 00 01 	fmfsr $r1,$fs10
    1bc0:	6a 25 00 01 	fmfsr $r2,$fs10
    1bc4:	e3 61       	slt45 $r11,$r1
    1bc6:	40 25 bc 1b 	cmovn $r2,$r11,$r15
    1bca:	6a 25 00 09 	fmtsr $r2,$fs10
    1bce:	92 00       	nop16
    1bd0:	54 16 80 02 	andi $r1,$r13,#0x2
    1bd4:	6a 13 00 09 	fmtsr $r1,$fs6
    1bd8:	4e 12 01 22 	beqz $r1,1e1c <_vsnprintf+0x6a0>
    1bdc:	c0 1c       	beqz38 $r0,1c14 <_vsnprintf+0x498>
    1bde:	92 00       	nop16
    1be0:	6a 14 00 01 	fmfsr $r1,$fs8
    1be4:	80 4a       	mov55 $r2,$r10
    1be6:	51 c0 80 01 	addi $fp,$r1,#0x1
    1bea:	d5 02       	j8 1bee <_vsnprintf+0x472>
    1bec:	80 4a       	mov55 $r2,$r10
    1bee:	80 2e       	mov55 $r1,$r14
    1bf0:	80 66       	mov55 $r3,$r6
    1bf2:	4e c2 00 07 	beqz $r12,1c00 <_vsnprintf+0x484>
    1bf6:	50 45 ff ff 	addi $r4,$r11,#-1
    1bfa:	4e b2 00 09 	beqz $r11,1c0c <_vsnprintf+0x490>
    1bfe:	81 64       	mov55 $r11,$r4
    1c00:	4b e0 1c 01 	jral $lp,$r7
    1c04:	28 0e 00 01 	lbsi.bi $r0,[$fp],#0x1
    1c08:	8d 41       	addi45 $r10,#0x1
    1c0a:	c8 f1       	bnez38 $r0,1bec <_vsnprintf+0x470>
    1c0c:	6a 03 00 01 	fmfsr $r0,$fs6
    1c10:	4e 02 00 1e 	beqz $r0,1c4c <_vsnprintf+0x4d0>
    1c14:	6a 05 00 01 	fmfsr $r0,$fs10
    1c18:	e2 09       	slt45 $r0,$r9
    1c1a:	e8 19       	beqzs8 1c4c <_vsnprintf+0x4d0>
    1c1c:	6a 05 00 01 	fmfsr $r0,$fs10
    1c20:	80 4a       	mov55 $r2,$r10
    1c22:	41 c0 28 01 	sub $fp,$r0,$r10
    1c26:	92 00       	nop16
    1c28:	50 b1 00 01 	addi $r11,$r2,#0x1
    1c2c:	fa 10       	movpi45 $r0,#0x20
    1c2e:	80 2e       	mov55 $r1,$r14
    1c30:	80 66       	mov55 $r3,$r6
    1c32:	dd 27       	jral5 $r7
    1c34:	40 0e 2c 00 	add $r0,$fp,$r11
    1c38:	40 00 24 06 	slt $r0,$r0,$r9
    1c3c:	80 4b       	mov55 $r2,$r11
    1c3e:	c8 f5       	bnez38 $r0,1c28 <_vsnprintf+0x4ac>
    1c40:	6a 15 00 01 	fmfsr $r1,$fs10
    1c44:	40 05 24 00 	add $r0,$r10,$r9
    1c48:	40 a0 04 01 	sub $r10,$r0,$r1
    1c4c:	50 d4 00 01 	addi $r13,$r8,#0x1
    1c50:	6b c4 80 01 	fmfsr $fp,$fs9
    1c54:	48 ff fd ba 	j 17c8 <_vsnprintf+0x4c>
    1c58:	fa 00       	movpi45 $r0,#0x10
    1c5a:	58 46 80 21 	ori $r4,$r13,#0x21
    1c5e:	b6 1f       	swi450 $r0,[$sp]
    1c60:	84 08       	movi55 $r0,#0x8
    1c62:	14 bf 80 01 	swi $r11,[$sp+#0x4]
    1c66:	f0 82       	swi37.sp $r0,[+#0x8]
    1c68:	f4 83       	swi37.sp $r4,[+#0xc]
    1c6a:	b4 9c       	lwi450 $r4,[$fp]
    1c6c:	51 ce 00 04 	addi $fp,$fp,#0x4
    1c70:	80 4a       	mov55 $r2,$r10
    1c72:	80 07       	mov55 $r0,$r7
    1c74:	80 2e       	mov55 $r1,$r14
    1c76:	80 66       	mov55 $r3,$r6
    1c78:	84 a0       	movi55 $r5,#0x0
    1c7a:	49 ff fc b9 	jal 15ec <_ntoa_long>
    1c7e:	81 40       	mov55 $r10,$r0
    1c80:	50 d4 00 01 	addi $r13,$r8,#0x1
    1c84:	48 ff fd a2 	j 17c8 <_vsnprintf+0x4c>
    1c88:	54 46 80 02 	andi $r4,$r13,#0x2
    1c8c:	4e 43 00 aa 	bnez $r4,1de0 <_vsnprintf+0x664>
    1c90:	e7 22       	slti45 $r9,#0x2
    1c92:	4e f3 03 cb 	bnez $r15,2428 <_vsnprintf+0xcac>
    1c96:	50 05 7f ff 	addi $r0,$r10,#-1
    1c9a:	89 20       	add45 $r9,$r0
    1c9c:	50 45 00 01 	addi $r4,$r10,#0x1
    1ca0:	80 4a       	mov55 $r2,$r10
    1ca2:	fa 10       	movpi45 $r0,#0x20
    1ca4:	81 44       	mov55 $r10,$r4
    1ca6:	80 2e       	mov55 $r1,$r14
    1ca8:	80 66       	mov55 $r3,$r6
    1caa:	dd 27       	jral5 $r7
    1cac:	4c a4 ff f8 	bne $r10,$r9,1c9c <_vsnprintf+0x520>
    1cb0:	20 0e 00 00 	lbsi $r0,[$fp+#0x0]
    1cb4:	80 2e       	mov55 $r1,$r14
    1cb6:	80 49       	mov55 $r2,$r9
    1cb8:	80 66       	mov55 $r3,$r6
    1cba:	51 ce 00 04 	addi $fp,$fp,#0x4
    1cbe:	50 a4 80 01 	addi $r10,$r9,#0x1
    1cc2:	dd 27       	jral5 $r7
    1cc4:	d5 de       	j8 1c80 <_vsnprintf+0x504>
    1cc6:	92 00       	nop16
    1cc8:	5a 08 78 04 	bnec $r0,#0x78,1cd0 <_vsnprintf+0x554>
    1ccc:	48 00 02 56 	j 2178 <_vsnprintf+0x9fc>
    1cd0:	5a 08 58 04 	bnec $r0,#0x58,1cd8 <_vsnprintf+0x55c>
    1cd4:	48 00 02 8a 	j 21e8 <_vsnprintf+0xa6c>
    1cd8:	5a 08 6f 04 	bnec $r0,#0x6f,1ce0 <_vsnprintf+0x564>
    1cdc:	48 00 03 27 	j 232a <_vsnprintf+0xbae>
    1ce0:	5a 08 62 04 	bnec $r0,#0x62,1ce8 <_vsnprintf+0x56c>
    1ce4:	48 00 02 ad 	j 223e <_vsnprintf+0xac2>
    1ce8:	66 16 80 10 	bitci $r1,$r13,#0x10
    1cec:	44 20 00 0a 	movi $r2,#0xa
    1cf0:	5a 00 69 04 	beqc $r0,#0x69,1cf8 <_vsnprintf+0x57c>
    1cf4:	48 00 02 69 	j 21c6 <_vsnprintf+0xa4a>
    1cf8:	54 46 84 00 	andi $r4,$r13,#0x400
    1cfc:	4e 43 02 6c 	bnez $r4,21d4 <_vsnprintf+0xa58>
    1d00:	54 00 82 00 	andi $r0,$r1,#0x200
    1d04:	4e 03 03 16 	bnez $r0,2330 <_vsnprintf+0xbb4>
    1d08:	54 00 81 00 	andi $r0,$r1,#0x100
    1d0c:	4e 03 02 94 	bnez $r0,2234 <_vsnprintf+0xab8>
    1d10:	54 00 80 40 	andi $r0,$r1,#0x40
    1d14:	4e 02 02 8c 	beqz $r0,222c <_vsnprintf+0xab0>
    1d18:	20 5e 00 00 	lbsi $r5,[$fp+#0x0]
    1d1c:	51 ce 00 04 	addi $fp,$fp,#0x4
    1d20:	b6 5f       	swi450 $r2,[$sp]
    1d22:	f1 83       	swi37.sp $r1,[+#0xc]
    1d24:	80 4a       	mov55 $r2,$r10
    1d26:	42 42 80 03 	abs $r4,$r5
    1d2a:	14 bf 80 01 	swi $r11,[$sp+#0x4]
    1d2e:	14 9f 80 02 	swi $r9,[$sp+#0x8]
    1d32:	80 07       	mov55 $r0,$r7
    1d34:	80 2e       	mov55 $r1,$r14
    1d36:	80 66       	mov55 $r3,$r6
    1d38:	92 bf       	srli45 $r5,#0x1f
    1d3a:	49 ff fc 59 	jal 15ec <_ntoa_long>
    1d3e:	81 40       	mov55 $r10,$r0
    1d40:	d5 a0       	j8 1c80 <_vsnprintf+0x504>
    1d42:	92 00       	nop16
    1d44:	51 ce 00 07 	addi $fp,$fp,#0x7
    1d48:	67 ce 00 07 	bitci $fp,$fp,#0x7
    1d4c:	44 00 24 a8 	movi $r0,#0x24a8
    1d50:	34 4e 00 00 	fldi $fd4,[$fp+#0x0]
    1d54:	34 50 00 00 	fldi $fd5,[$r0+#0x0]
    1d58:	51 ce 00 08 	addi $fp,$fp,#0x8
    1d5c:	6a 02 10 c8 	fcpysd $fd0,$fd4,$fd4
    1d60:	6a 12 94 c8 	fcpysd $fd1,$fd5,$fd5
    1d64:	49 00 38 d9 	jal 8f16 <__ledf2>
    1d68:	4e 05 02 82 	bltz $r0,226c <_vsnprintf+0xaf0>
    1d6c:	84 00       	movi55 $r0,#0x0
    1d6e:	6a 09 00 09 	fmtsr $r0,$fs18
    1d72:	92 00       	nop16
    1d74:	54 06 84 00 	andi $r0,$r13,#0x400
    1d78:	4e 02 00 7e 	beqz $r0,1e74 <_vsnprintf+0x6f8>
    1d7c:	e7 6a       	slti45 $r11,#0xa
    1d7e:	4e f3 03 58 	bnez $r15,242e <_vsnprintf+0xcb2>
    1d82:	44 00 00 30 	movi $r0,#0x30
    1d86:	10 0f 80 48 	sbi $r0,[$sp+#0x48]
    1d8a:	50 15 ff ff 	addi $r1,$r11,#-1
    1d8e:	50 2f 80 49 	addi $r2,$sp,#0x49
    1d92:	8f 69       	subi45 $r11,#0x9
    1d94:	84 01       	movi55 $r0,#0x1
    1d96:	44 30 00 30 	movi $r3,#0x30
    1d9a:	92 00       	nop16
    1d9c:	4c 05 80 6e 	beq $r0,$r11,1e78 <_vsnprintf+0x6fc>
    1da0:	8c 01       	addi45 $r0,#0x1
    1da2:	18 31 00 01 	sbi.bi $r3,[$r2],#0x1
    1da6:	8e 21       	subi45 $r1,#0x1
    1da8:	5a 08 20 fa 	bnec $r0,#0x20,1d9c <_vsnprintf+0x620>
    1dac:	fb 70       	movpi45 $r11,#0x20
    1dae:	d5 65       	j8 1e78 <_vsnprintf+0x6fc>
    1db0:	80 4a       	mov55 $r2,$r10
    1db2:	50 95 00 01 	addi $r9,$r10,#0x1
    1db6:	fa 15       	movpi45 $r0,#0x25
    1db8:	48 ff fd a0 	j 18f8 <_vsnprintf+0x17c>
    1dbc:	b5 3c       	lwi450 $r9,[$fp]
    1dbe:	51 ce 00 04 	addi $fp,$fp,#0x4
    1dc2:	4e 95 02 6d 	bltz $r9,229c <_vsnprintf+0xb20>
    1dc6:	8d 01       	addi45 $r8,#0x1
    1dc8:	20 01 80 01 	lbsi $r0,[$r3+#0x1]
    1dcc:	48 ff fd 52 	j 1870 <_vsnprintf+0xf4>
    1dd0:	5a 08 2a 04 	bnec $r0,#0x2a,1dd8 <_vsnprintf+0x65c>
    1dd4:	48 00 02 5a 	j 2288 <_vsnprintf+0xb0c>
    1dd8:	81 02       	mov55 $r8,$r2
    1dda:	48 ff fd 51 	j 187c <_vsnprintf+0x100>
    1dde:	92 00       	nop16
    1de0:	20 0e 00 00 	lbsi $r0,[$fp+#0x0]
    1de4:	80 2e       	mov55 $r1,$r14
    1de6:	80 4a       	mov55 $r2,$r10
    1de8:	80 66       	mov55 $r3,$r6
    1dea:	dd 27       	jral5 $r7
    1dec:	5c 04 80 02 	slti $r0,$r9,#0x2
    1df0:	50 ce 00 04 	addi $r12,$fp,#0x4
    1df4:	50 b5 00 01 	addi $r11,$r10,#0x1
    1df8:	4e 03 03 14 	bnez $r0,2420 <_vsnprintf+0xca4>
    1dfc:	41 c4 a8 00 	add $fp,$r9,$r10
    1e00:	50 55 80 01 	addi $r5,$r11,#0x1
    1e04:	80 4b       	mov55 $r2,$r11
    1e06:	fa 10       	movpi45 $r0,#0x20
    1e08:	81 65       	mov55 $r11,$r5
    1e0a:	80 2e       	mov55 $r1,$r14
    1e0c:	80 66       	mov55 $r3,$r6
    1e0e:	dd 27       	jral5 $r7
    1e10:	4c be 7f f8 	bne $r11,$fp,1e00 <_vsnprintf+0x684>
    1e14:	81 4b       	mov55 $r10,$r11
    1e16:	83 8c       	mov55 $fp,$r12
    1e18:	48 ff ff 34 	j 1c80 <_vsnprintf+0x504>
    1e1c:	6a 15 00 01 	fmfsr $r1,$fs10
    1e20:	6a 25 00 01 	fmfsr $r2,$fs10
    1e24:	e2 29       	slt45 $r1,$r9
    1e26:	8c 41       	addi45 $r2,#0x1
    1e28:	4e f2 02 f6 	beqz $r15,2414 <_vsnprintf+0xc98>
    1e2c:	6a 05 00 01 	fmfsr $r0,$fs10
    1e30:	80 4a       	mov55 $r2,$r10
    1e32:	41 c0 28 01 	sub $fp,$r0,$r10
    1e36:	92 00       	nop16
    1e38:	50 d1 00 01 	addi $r13,$r2,#0x1
    1e3c:	fa 10       	movpi45 $r0,#0x20
    1e3e:	80 2e       	mov55 $r1,$r14
    1e40:	80 66       	mov55 $r3,$r6
    1e42:	dd 27       	jral5 $r7
    1e44:	40 0e 34 00 	add $r0,$fp,$r13
    1e48:	40 00 24 06 	slt $r0,$r0,$r9
    1e4c:	80 4d       	mov55 $r2,$r13
    1e4e:	c8 f5       	bnez38 $r0,1e38 <_vsnprintf+0x6bc>
    1e50:	6a 15 00 01 	fmfsr $r1,$fs10
    1e54:	40 04 a8 00 	add $r0,$r9,$r10
    1e58:	40 a0 04 01 	sub $r10,$r0,$r1
    1e5c:	6a 04 00 01 	fmfsr $r0,$fs8
    1e60:	50 14 80 01 	addi $r1,$r9,#0x1
    1e64:	20 00 00 00 	lbsi $r0,[$r0+#0x0]
    1e68:	6a 15 00 09 	fmtsr $r1,$fs10
    1e6c:	4e 03 fe ba 	bnez $r0,1be0 <_vsnprintf+0x464>
    1e70:	48 ff fe ee 	j 1c4c <_vsnprintf+0x4d0>
    1e74:	84 26       	movi55 $r1,#0x6
    1e76:	85 60       	movi55 $r11,#0x0
    1e78:	6a 02 10 c8 	fcpysd $fd0,$fd4,$fd4
    1e7c:	44 00 24 b0 	movi $r0,#0x24b0
    1e80:	f1 89       	swi37.sp $r1,[+#0x24]
    1e82:	6a 08 80 09 	fmtsr $r0,$fs17
    1e86:	49 00 37 4d 	jal 8d20 <__fixdfsi>
    1e8a:	f1 09       	lwi37.sp $r1,[+#0x24]
    1e8c:	44 30 24 58 	movi $r3,#0x2458
    1e90:	94 8b       	slli333 $r2,$r1,#0x3
    1e92:	88 43       	add45 $r2,$r3
    1e94:	34 51 00 00 	fldi $fd5,[$r2+#0x0]
    1e98:	50 c0 00 00 	addi $r12,$r0,#0x0
    1e9c:	49 00 3e 37 	jal 9b0a <__floatsidf>
    1ea0:	6a 10 00 c8 	fcpysd $fd1,$fd0,$fd0
    1ea4:	6a 02 10 c8 	fcpysd $fd0,$fd4,$fd4
    1ea8:	49 00 3a e0 	jal 9468 <__subdf3>
    1eac:	6a 12 94 c8 	fcpysd $fd1,$fd5,$fd5
    1eb0:	49 00 38 88 	jal 8fc0 <__muldf3>
    1eb4:	6a 60 00 c8 	fcpysd $fd6,$fd0,$fd0
    1eb8:	49 00 37 5e 	jal 8d74 <__fixunsdfsi>
    1ebc:	6a 09 80 09 	fmtsr $r0,$fs19
    1ec0:	49 00 3e 5b 	jal 9b76 <__floatunsidf>
    1ec4:	6a 10 00 c8 	fcpysd $fd1,$fd0,$fd0
    1ec8:	6a 03 18 c8 	fcpysd $fd0,$fd6,$fd6
    1ecc:	49 00 3a ce 	jal 9468 <__subdf3>
    1ed0:	6a 08 80 01 	fmfsr $r0,$fs17
    1ed4:	6a 60 00 c8 	fcpysd $fd6,$fd0,$fd0
    1ed8:	34 70 00 00 	fldi $fd7,[$r0+#0x0]
    1edc:	6a 13 9c c8 	fcpysd $fd1,$fd7,$fd7
    1ee0:	49 00 37 c7 	jal 8e6e <__gedf2>
    1ee4:	f1 09       	lwi37.sp $r1,[+#0x24]
    1ee6:	4e 07 00 cb 	blez $r0,207c <_vsnprintf+0x900>
    1eea:	6a 09 80 01 	fmfsr $r0,$fs19
    1eee:	8c 01       	addi45 $r0,#0x1
    1ef0:	6a 09 80 09 	fmtsr $r0,$fs19
    1ef4:	49 00 3e 41 	jal 9b76 <__floatunsidf>
    1ef8:	6a 10 00 c8 	fcpysd $fd1,$fd0,$fd0
    1efc:	6a 02 94 c8 	fcpysd $fd0,$fd5,$fd5
    1f00:	49 00 38 0b 	jal 8f16 <__ledf2>
    1f04:	f1 09       	lwi37.sp $r1,[+#0x24]
    1f06:	4e 07 01 6a 	blez $r0,21da <_vsnprintf+0xa5e>
    1f0a:	92 00       	nop16
    1f0c:	44 00 24 b8 	movi $r0,#0x24b8
    1f10:	34 10 00 00 	fldi $fd1,[$r0+#0x0]
    1f14:	6a 02 10 c8 	fcpysd $fd0,$fd4,$fd4
    1f18:	14 1f 80 09 	swi $r1,[$sp+#0x24]
    1f1c:	49 00 37 a9 	jal 8e6e <__gedf2>
    1f20:	4e 06 00 c5 	bgtz $r0,20aa <_vsnprintf+0x92e>
    1f24:	f1 09       	lwi37.sp $r1,[+#0x24]
    1f26:	4e 13 00 cd 	bnez $r1,20c0 <_vsnprintf+0x944>
    1f2a:	80 0c       	mov55 $r0,$r12
    1f2c:	49 00 3d ef 	jal 9b0a <__floatsidf>
    1f30:	6a 10 00 c8 	fcpysd $fd1,$fd0,$fd0
    1f34:	6a 02 10 c8 	fcpysd $fd0,$fd4,$fd4
    1f38:	49 00 3a 98 	jal 9468 <__subdf3>
    1f3c:	6a 08 80 01 	fmfsr $r0,$fs17
    1f40:	6a 40 00 c8 	fcpysd $fd4,$fd0,$fd0
    1f44:	34 50 00 00 	fldi $fd5,[$r0+#0x0]
    1f48:	6a 12 94 c8 	fcpysd $fd1,$fd5,$fd5
    1f4c:	49 00 37 91 	jal 8e6e <__gedf2>
    1f50:	4e 06 01 5e 	bgtz $r0,220c <_vsnprintf+0xa90>
    1f54:	6a 02 10 c8 	fcpysd $fd0,$fd4,$fd4
    1f58:	6a 12 94 c8 	fcpysd $fd1,$fd5,$fd5
    1f5c:	49 00 37 52 	jal 8e00 <__eqdf2>
    1f60:	c8 06       	bnez38 $r0,1f6c <_vsnprintf+0x7f0>
    1f62:	54 06 00 01 	andi $r0,$r12,#0x1
    1f66:	40 c6 00 00 	add $r12,$r12,$r0
    1f6a:	92 00       	nop16
    1f6c:	5a b0 20 30 	beqc $r11,#0x20,1fcc <_vsnprintf+0x850>
    1f70:	6a 08 00 01 	fmfsr $r0,$fs16
    1f74:	40 16 7c 0a 	srai $r1,$r12,#0x1f
    1f78:	42 06 00 b8 	smmul $r0,$r12,$r0
    1f7c:	b0 92       	addri36.sp $r2,#0x48
    1f7e:	90 02       	srai45 $r0,#0x2
    1f80:	9a 41       	sub333 $r1,$r0,$r1
    1f82:	84 0a       	movi55 $r0,#0xa
    1f84:	42 c0 80 75 	msubr32 $r12,$r1,$r0
    1f88:	50 06 00 30 	addi $r0,$r12,#0x30
    1f8c:	38 01 2c 08 	sb $r0,[$r2+($r11<<#0x0)]
    1f90:	50 c5 80 01 	addi $r12,$r11,#0x1
    1f94:	c1 1e       	beqz38 $r1,1fd0 <_vsnprintf+0x854>
    1f96:	40 31 30 00 	add $r3,$r2,$r12
    1f9a:	86 2a       	movi55 $r17,#0xa
    1f9c:	d5 08       	j8 1fac <_vsnprintf+0x830>
    1f9e:	92 00       	nop16
    1fa0:	50 c6 00 01 	addi $r12,$r12,#0x1
    1fa4:	18 21 80 01 	sbi.bi $r2,[$r3],#0x1
    1fa8:	4e 12 00 14 	beqz $r1,1fd0 <_vsnprintf+0x854>
    1fac:	6a 08 00 01 	fmfsr $r0,$fs16
    1fb0:	40 20 fc 0a 	srai $r2,$r1,#0x1f
    1fb4:	42 00 80 b8 	smmul $r0,$r1,$r0
    1fb8:	90 02       	srai45 $r0,#0x2
    1fba:	8a 02       	sub45 $r0,$r2
    1fbc:	42 10 44 75 	msubr32 $r1,$r0,$r17
    1fc0:	50 20 80 30 	addi $r2,$r1,#0x30
    1fc4:	80 20       	mov55 $r1,$r0
    1fc6:	5a c8 20 ed 	bnec $r12,#0x20,1fa0 <_vsnprintf+0x824>
    1fca:	92 00       	nop16
    1fcc:	44 c0 00 20 	movi $r12,#0x20
    1fd0:	54 36 80 03 	andi $r3,$r13,#0x3
    1fd4:	5a 38 01 04 	bnec $r3,#0x1,1fdc <_vsnprintf+0x860>
    1fd8:	48 00 01 68 	j 22a8 <_vsnprintf+0xb2c>
    1fdc:	4c 96 00 b4 	beq $r9,$r12,2144 <_vsnprintf+0x9c8>
    1fe0:	5c 06 00 20 	slti $r0,$r12,#0x20
    1fe4:	4e 03 00 ba 	bnez $r0,2158 <_vsnprintf+0x9dc>
    1fe8:	80 4a       	mov55 $r2,$r10
    1fea:	cb 19       	bnez38 $r3,201c <_vsnprintf+0x8a0>
    1fec:	40 06 24 06 	slt $r0,$r12,$r9
    1ff0:	4e 02 02 06 	beqz $r0,23fc <_vsnprintf+0xc80>
    1ff4:	40 06 28 01 	sub $r0,$r12,$r10
    1ff8:	6a 03 00 09 	fmtsr $r0,$fs6
    1ffc:	fa 10       	movpi45 $r0,#0x20
    1ffe:	80 2e       	mov55 $r1,$r14
    2000:	80 66       	mov55 $r3,$r6
    2002:	50 b1 00 01 	addi $r11,$r2,#0x1
    2006:	dd 27       	jral5 $r7
    2008:	6a 03 00 01 	fmfsr $r0,$fs6
    200c:	80 4b       	mov55 $r2,$r11
    200e:	88 0b       	add45 $r0,$r11
    2010:	40 00 24 06 	slt $r0,$r0,$r9
    2014:	c8 f4       	bnez38 $r0,1ffc <_vsnprintf+0x880>
    2016:	40 24 a8 00 	add $r2,$r9,$r10
    201a:	8a 4c       	sub45 $r2,$r12
    201c:	4e c2 01 f8 	beqz $r12,240c <_vsnprintf+0xc90>
    2020:	50 06 7f ff 	addi $r0,$r12,#-1
    2024:	b0 52       	addri36.sp $r1,#0x48
    2026:	88 01       	add45 $r0,$r1
    2028:	6a 04 80 09 	fmtsr $r0,$fs9
    202c:	40 b1 30 00 	add $r11,$r2,$r12
    2030:	6a 14 80 01 	fmfsr $r1,$fs9
    2034:	50 c1 00 01 	addi $r12,$r2,#0x1
    2038:	28 00 ff ff 	lbsi.bi $r0,[$r1],#-1
    203c:	6a 14 80 09 	fmtsr $r1,$fs9
    2040:	80 66       	mov55 $r3,$r6
    2042:	80 2e       	mov55 $r1,$r14
    2044:	dd 27       	jral5 $r7
    2046:	80 4c       	mov55 $r2,$r12
    2048:	4c c5 ff f4 	bne $r12,$r11,2030 <_vsnprintf+0x8b4>
    204c:	54 46 80 02 	andi $r4,$r13,#0x2
    2050:	c4 13       	beqz38 $r4,2076 <_vsnprintf+0x8fa>
    2052:	40 05 a8 01 	sub $r0,$r11,$r10
    2056:	e2 09       	slt45 $r0,$r9
    2058:	e8 0f       	beqzs8 2076 <_vsnprintf+0x8fa>
    205a:	92 00       	nop16
    205c:	50 45 80 01 	addi $r4,$r11,#0x1
    2060:	80 4b       	mov55 $r2,$r11
    2062:	fa 10       	movpi45 $r0,#0x20
    2064:	81 64       	mov55 $r11,$r4
    2066:	80 2e       	mov55 $r1,$r14
    2068:	80 66       	mov55 $r3,$r6
    206a:	dd 27       	jral5 $r7
    206c:	40 05 a8 01 	sub $r0,$r11,$r10
    2070:	40 00 24 06 	slt $r0,$r0,$r9
    2074:	c8 f4       	bnez38 $r0,205c <_vsnprintf+0x8e0>
    2076:	81 4b       	mov55 $r10,$r11
    2078:	48 ff fe 04 	j 1c80 <_vsnprintf+0x504>
    207c:	6a 03 18 c8 	fcpysd $fd0,$fd6,$fd6
    2080:	6a 13 9c c8 	fcpysd $fd1,$fd7,$fd7
    2084:	f1 89       	swi37.sp $r1,[+#0x24]
    2086:	49 00 36 bd 	jal 8e00 <__eqdf2>
    208a:	f1 09       	lwi37.sp $r1,[+#0x24]
    208c:	4e 03 ff 40 	bnez $r0,1f0c <_vsnprintf+0x790>
    2090:	6a 09 80 01 	fmfsr $r0,$fs19
    2094:	c0 04       	beqz38 $r0,209c <_vsnprintf+0x920>
    2096:	96 04       	xlsb33 $r0,$r0
    2098:	4e 02 ff 3a 	beqz $r0,1f0c <_vsnprintf+0x790>
    209c:	6a 09 80 01 	fmfsr $r0,$fs19
    20a0:	8c 01       	addi45 $r0,#0x1
    20a2:	6a 09 80 09 	fmtsr $r0,$fs19
    20a6:	48 ff ff 33 	j 1f0c <_vsnprintf+0x790>
    20aa:	85 40       	movi55 $r10,#0x0
    20ac:	48 ff fd ea 	j 1c80 <_vsnprintf+0x504>
    20b0:	20 04 00 02 	lbsi $r0,[$r8+#0x2]
    20b4:	58 d6 80 c0 	ori $r13,$r13,#0xc0
    20b8:	8d 02       	addi45 $r8,#0x2
    20ba:	48 ff fc 17 	j 18e8 <_vsnprintf+0x16c>
    20be:	92 00       	nop16
    20c0:	5a b8 20 04 	bnec $r11,#0x20,20c8 <_vsnprintf+0x94c>
    20c4:	48 ff ff 84 	j 1fcc <_vsnprintf+0x850>
    20c8:	6a 23 80 01 	fmfsr $r2,$fs7
    20cc:	6a 09 80 01 	fmfsr $r0,$fs19
    20d0:	6a 33 80 01 	fmfsr $r3,$fs7
    20d4:	42 00 08 b8 	smmul $r0,$r0,$r2
    20d8:	6a 29 80 01 	fmfsr $r2,$fs19
    20dc:	b1 12       	addri36.sp $r4,#0x48
    20de:	90 5f       	srai45 $r2,#0x1f
    20e0:	fe 9e       	and33 $r2,$r3
    20e2:	88 02       	add45 $r0,$r2
    20e4:	6a 29 80 01 	fmfsr $r2,$fs19
    20e8:	8e 21       	subi45 $r1,#0x1
    20ea:	88 02       	add45 $r0,$r2
    20ec:	40 30 0c 09 	srli $r3,$r0,#0x3
    20f0:	84 0a       	movi55 $r0,#0xa
    20f2:	42 21 80 75 	msubr32 $r2,$r3,$r0
    20f6:	50 01 00 30 	addi $r0,$r2,#0x30
    20fa:	38 02 2c 08 	sb $r0,[$r4+($r11<<#0x0)]
    20fe:	50 25 80 01 	addi $r2,$r11,#0x1
    2102:	4e 32 00 a1 	beqz $r3,2244 <_vsnprintf+0xac8>
    2106:	41 12 08 00 	add $r17,$r4,$r2
    210a:	86 4a       	movi55 $r18,#0xa
    210c:	d5 10       	j8 212c <_vsnprintf+0x9b0>
    210e:	88 03       	add45 $r0,$r3
    2110:	92 03       	srli45 $r0,#0x3
    2112:	42 30 48 75 	msubr32 $r3,$r0,$r18
    2116:	8e 21       	subi45 $r1,#0x1
    2118:	80 a3       	mov55 $r5,$r3
    211a:	80 60       	mov55 $r3,$r0
    211c:	50 02 80 30 	addi $r0,$r5,#0x30
    2120:	8c 41       	addi45 $r2,#0x1
    2122:	18 08 80 01 	sbi.bi $r0,[$r17],#0x1
    2126:	4e 32 00 8f 	beqz $r3,2244 <_vsnprintf+0xac8>
    212a:	92 00       	nop16
    212c:	6a 03 80 01 	fmfsr $r0,$fs7
    2130:	42 01 80 b8 	smmul $r0,$r3,$r0
    2134:	5a 28 20 ed 	bnec $r2,#0x20,210e <_vsnprintf+0x992>
    2138:	48 ff ff 4a 	j 1fcc <_vsnprintf+0x850>
    213c:	5a 90 20 04 	beqc $r9,#0x20,2144 <_vsnprintf+0x9c8>
    2140:	48 00 01 4a 	j 23d4 <_vsnprintf+0xc58>
    2144:	6a 09 00 01 	fmfsr $r0,$fs18
    2148:	c8 06       	bnez38 $r0,2154 <_vsnprintf+0x9d8>
    214a:	54 06 80 0c 	andi $r0,$r13,#0xc
    214e:	4e 02 01 4f 	beqz $r0,23ec <_vsnprintf+0xc70>
    2152:	92 00       	nop16
    2154:	50 c4 ff ff 	addi $r12,$r9,#-1
    2158:	6a 09 00 01 	fmfsr $r0,$fs18
    215c:	c8 4f       	bnez38 $r0,21fa <_vsnprintf+0xa7e>
    215e:	92 00       	nop16
    2160:	54 06 80 04 	andi $r0,$r13,#0x4
    2164:	4e 02 01 2c 	beqz $r0,23bc <_vsnprintf+0xc40>
    2168:	fa 1b       	movpi45 $r0,#0x2b
    216a:	b0 52       	addri36.sp $r1,#0x48
    216c:	38 00 b0 08 	sb $r0,[$r1+($r12<<#0x0)]
    2170:	50 c6 00 01 	addi $r12,$r12,#0x1
    2174:	48 ff ff 3a 	j 1fe8 <_vsnprintf+0x86c>
    2178:	fa 40       	movpi45 $r2,#0x10
    217a:	92 00       	nop16
    217c:	54 36 84 00 	andi $r3,$r13,#0x400
    2180:	66 16 80 0c 	bitci $r1,$r13,#0xc
    2184:	4e 33 00 28 	bnez $r3,21d4 <_vsnprintf+0xa58>
    2188:	5a 08 69 04 	bnec $r0,#0x69,2190 <_vsnprintf+0xa14>
    218c:	48 ff fd ba 	j 1d00 <_vsnprintf+0x584>
    2190:	5a 08 64 04 	bnec $r0,#0x64,2198 <_vsnprintf+0xa1c>
    2194:	48 ff fd b6 	j 1d00 <_vsnprintf+0x584>
    2198:	54 00 82 00 	andi $r0,$r1,#0x200
    219c:	4e 03 00 a8 	bnez $r0,22ec <_vsnprintf+0xb70>
    21a0:	54 00 81 00 	andi $r0,$r1,#0x100
    21a4:	c8 38       	bnez38 $r0,2214 <_vsnprintf+0xa98>
    21a6:	54 00 80 40 	andi $r0,$r1,#0x40
    21aa:	4e 02 00 fb 	beqz $r0,23a0 <_vsnprintf+0xc24>
    21ae:	00 4e 00 00 	lbi $r4,[$fp+#0x0]
    21b2:	51 ce 00 04 	addi $fp,$fp,#0x4
    21b6:	b6 5f       	swi450 $r2,[$sp]
    21b8:	14 bf 80 01 	swi $r11,[$sp+#0x4]
    21bc:	14 9f 80 02 	swi $r9,[$sp+#0x8]
    21c0:	f1 83       	swi37.sp $r1,[+#0xc]
    21c2:	48 ff fd 57 	j 1c70 <_vsnprintf+0x4f4>
    21c6:	81 a1       	mov55 $r13,$r1
    21c8:	5a 08 64 da 	bnec $r0,#0x64,217c <_vsnprintf+0xa00>
    21cc:	54 40 84 00 	andi $r4,$r1,#0x400
    21d0:	4e 42 fd 98 	beqz $r4,1d00 <_vsnprintf+0x584>
    21d4:	66 10 80 01 	bitci $r1,$r1,#0x1
    21d8:	d5 d8       	j8 2188 <_vsnprintf+0xa0c>
    21da:	84 00       	movi55 $r0,#0x0
    21dc:	50 c6 00 01 	addi $r12,$r12,#0x1
    21e0:	6a 09 80 09 	fmtsr $r0,$fs19
    21e4:	48 ff fe 94 	j 1f0c <_vsnprintf+0x790>
    21e8:	66 16 80 0c 	bitci $r1,$r13,#0xc
    21ec:	54 46 84 00 	andi $r4,$r13,#0x400
    21f0:	58 10 80 20 	ori $r1,$r1,#0x20
    21f4:	fa 40       	movpi45 $r2,#0x10
    21f6:	cc ef       	bnez38 $r4,21d4 <_vsnprintf+0xa58>
    21f8:	d5 d0       	j8 2198 <_vsnprintf+0xa1c>
    21fa:	fa 1d       	movpi45 $r0,#0x2d
    21fc:	b0 52       	addri36.sp $r1,#0x48
    21fe:	38 00 b0 08 	sb $r0,[$r1+($r12<<#0x0)]
    2202:	50 c6 00 01 	addi $r12,$r12,#0x1
    2206:	48 ff fe f1 	j 1fe8 <_vsnprintf+0x86c>
    220a:	92 00       	nop16
    220c:	50 c6 00 01 	addi $r12,$r12,#0x1
    2210:	48 ff fe ae 	j 1f6c <_vsnprintf+0x7f0>
    2214:	b6 5f       	swi450 $r2,[$sp]
    2216:	14 bf 80 01 	swi $r11,[$sp+#0x4]
    221a:	14 9f 80 02 	swi $r9,[$sp+#0x8]
    221e:	f1 83       	swi37.sp $r1,[+#0xc]
    2220:	b4 9c       	lwi450 $r4,[$fp]
    2222:	51 ce 00 04 	addi $fp,$fp,#0x4
    2226:	48 ff fd 25 	j 1c70 <_vsnprintf+0x4f4>
    222a:	92 00       	nop16
    222c:	54 00 80 80 	andi $r0,$r1,#0x80
    2230:	4e 03 00 d8 	bnez $r0,23e0 <_vsnprintf+0xc64>
    2234:	b4 bc       	lwi450 $r5,[$fp]
    2236:	51 ce 00 04 	addi $fp,$fp,#0x4
    223a:	48 ff fd 73 	j 1d20 <_vsnprintf+0x5a4>
    223e:	84 42       	movi55 $r2,#0x2
    2240:	d5 9e       	j8 217c <_vsnprintf+0xa00>
    2242:	92 00       	nop16
    2244:	5a 28 20 04 	bnec $r2,#0x20,224c <_vsnprintf+0xad0>
    2248:	48 ff fe c2 	j 1fcc <_vsnprintf+0x850>
    224c:	c1 48       	beqz38 $r1,22dc <_vsnprintf+0xb60>
    224e:	b0 12       	addri36.sp $r0,#0x48
    2250:	88 02       	add45 $r0,$r2
    2252:	44 30 00 30 	movi $r3,#0x30
    2256:	d5 02       	j8 225a <_vsnprintf+0xade>
    2258:	c1 42       	beqz38 $r1,22dc <_vsnprintf+0xb60>
    225a:	8c 41       	addi45 $r2,#0x1
    225c:	8e 21       	subi45 $r1,#0x1
    225e:	18 30 00 01 	sbi.bi $r3,[$r0],#0x1
    2262:	5a 28 20 fb 	bnec $r2,#0x20,2258 <_vsnprintf+0xadc>
    2266:	48 ff fe b3 	j 1fcc <_vsnprintf+0x850>
    226a:	92 00       	nop16
    226c:	6a 12 10 c8 	fcpysd $fd1,$fd4,$fd4
    2270:	6a 02 94 c8 	fcpysd $fd0,$fd5,$fd5
    2274:	44 00 00 01 	movi $r0,#0x1
    2278:	6a 09 00 09 	fmtsr $r0,$fs18
    227c:	49 00 38 f6 	jal 9468 <__subdf3>
    2280:	6a 40 00 c8 	fcpysd $fd4,$fd0,$fd0
    2284:	48 ff fd 78 	j 1d74 <_vsnprintf+0x5f8>
    2288:	b4 3c       	lwi450 $r1,[$fp]
    228a:	20 04 00 02 	lbsi $r0,[$r8+#0x2]
    228e:	42 b5 84 00 	max $r11,$r11,$r1
    2292:	8d 02       	addi45 $r8,#0x2
    2294:	51 ce 00 04 	addi $fp,$fp,#0x4
    2298:	48 ff fa f2 	j 187c <_vsnprintf+0x100>
    229c:	58 d6 80 02 	ori $r13,$r13,#0x2
    22a0:	52 94 80 00 	subri $r9,$r9,#0x0
    22a4:	48 ff fd 91 	j 1dc6 <_vsnprintf+0x64a>
    22a8:	40 06 24 06 	slt $r0,$r12,$r9
    22ac:	4e 02 fe 98 	beqz $r0,1fdc <_vsnprintf+0x860>
    22b0:	5a c8 20 04 	bnec $r12,#0x20,22b8 <_vsnprintf+0xb3c>
    22b4:	48 ff ff 44 	j 213c <_vsnprintf+0x9c0>
    22b8:	b0 12       	addri36.sp $r0,#0x48
    22ba:	88 0c       	add45 $r0,$r12
    22bc:	44 10 00 30 	movi $r1,#0x30
    22c0:	48 00 00 06 	j 22cc <_vsnprintf+0xb50>
    22c4:	5a c8 20 04 	bnec $r12,#0x20,22cc <_vsnprintf+0xb50>
    22c8:	48 ff ff 3a 	j 213c <_vsnprintf+0x9c0>
    22cc:	50 c6 00 01 	addi $r12,$r12,#0x1
    22d0:	18 10 00 01 	sbi.bi $r1,[$r0],#0x1
    22d4:	4c c4 ff f8 	bne $r12,$r9,22c4 <_vsnprintf+0xb48>
    22d8:	48 ff ff 36 	j 2144 <_vsnprintf+0x9c8>
    22dc:	fa 1e       	movpi45 $r0,#0x2e
    22de:	b0 52       	addri36.sp $r1,#0x48
    22e0:	50 b1 00 01 	addi $r11,$r2,#0x1
    22e4:	38 00 88 08 	sb $r0,[$r1+($r2<<#0x0)]
    22e8:	48 ff fe 42 	j 1f6c <_vsnprintf+0x7f0>
    22ec:	84 00       	movi55 $r0,#0x0
    22ee:	f0 91       	swi37.sp $r0,[+#0x44]
    22f0:	f2 90       	swi37.sp $r2,[+#0x40]
    22f2:	f2 10       	lwi37.sp $r2,[+#0x40]
    22f4:	f3 11       	lwi37.sp $r3,[+#0x44]
    22f6:	51 ce 00 07 	addi $fp,$fp,#0x7
    22fa:	b6 1f       	swi450 $r0,[$sp]
    22fc:	f2 82       	swi37.sp $r2,[+#0x8]
    22fe:	f3 83       	swi37.sp $r3,[+#0xc]
    2300:	f1 86       	swi37.sp $r1,[+#0x18]
    2302:	67 ce 00 07 	bitci $fp,$fp,#0x7
    2306:	14 bf 80 04 	swi $r11,[$sp+#0x10]
    230a:	14 9f 80 05 	swi $r9,[$sp+#0x14]
    230e:	80 4a       	mov55 $r2,$r10
    2310:	3a 4e 14 00 	lmw.bi $r4,[$fp],$r5,#0x0    ! {$r4~$r5}
    2314:	80 07       	mov55 $r0,$r7
    2316:	80 2e       	mov55 $r1,$r14
    2318:	50 33 00 00 	addi $r3,$r6,#0x0
    231c:	49 ff f9 b2 	jal 1680 <_ntoa_long_long>
    2320:	51 ce 00 08 	addi $fp,$fp,#0x8
    2324:	81 40       	mov55 $r10,$r0
    2326:	48 ff fc ad 	j 1c80 <_vsnprintf+0x504>
    232a:	84 48       	movi55 $r2,#0x8
    232c:	48 ff ff 28 	j 217c <_vsnprintf+0xa00>
    2330:	51 ce 00 07 	addi $fp,$fp,#0x7
    2334:	67 ce 00 07 	bitci $fp,$fp,#0x7
    2338:	3a 4e 14 00 	lmw.bi $r4,[$fp],$r5,#0x0    ! {$r4~$r5}
    233c:	40 02 fc 0a 	srai $r0,$r5,#0x1f
    2340:	f0 8a       	swi37.sp $r0,[+#0x28]
    2342:	05 2f 80 0a 	lwi $r18,[$sp+#0x28]
    2346:	f0 8b       	swi37.sp $r0,[+#0x2c]
    2348:	05 3f 80 0b 	lwi $r19,[$sp+#0x2c]
    234c:	80 72       	mov55 $r3,$r18
    234e:	80 04       	mov55 $r0,$r4
    2350:	fe 1d       	xor33 $r0,$r3
    2352:	f0 8c       	swi37.sp $r0,[+#0x30]
    2354:	f2 8e       	swi37.sp $r2,[+#0x38]
    2356:	80 05       	mov55 $r0,$r5
    2358:	80 53       	mov55 $r2,$r19
    235a:	fe 15       	xor33 $r0,$r2
    235c:	84 40       	movi55 $r2,#0x0
    235e:	f0 8d       	swi37.sp $r0,[+#0x34]
    2360:	f2 8f       	swi37.sp $r2,[+#0x3c]
    2362:	40 02 fc 09 	srli $r0,$r5,#0x1f
    2366:	f2 0e       	lwi37.sp $r2,[+#0x38]
    2368:	f3 0f       	lwi37.sp $r3,[+#0x3c]
    236a:	05 0f 80 0c 	lwi $r16,[$sp+#0x30]
    236e:	05 1f 80 0d 	lwi $r17,[$sp+#0x34]
    2372:	b6 1f       	swi450 $r0,[$sp]
    2374:	f2 82       	swi37.sp $r2,[+#0x8]
    2376:	f3 83       	swi37.sp $r3,[+#0xc]
    2378:	f1 86       	swi37.sp $r1,[+#0x18]
    237a:	80 4a       	mov55 $r2,$r10
    237c:	14 bf 80 04 	swi $r11,[$sp+#0x10]
    2380:	14 9f 80 05 	swi $r9,[$sp+#0x14]
    2384:	80 07       	mov55 $r0,$r7
    2386:	80 2e       	mov55 $r1,$r14
    2388:	50 33 00 00 	addi $r3,$r6,#0x0
    238c:	42 48 48 34 	sub64 $r4,$r16,$r18
    2390:	49 ff f9 78 	jal 1680 <_ntoa_long_long>
    2394:	51 ce 00 08 	addi $fp,$fp,#0x8
    2398:	81 40       	mov55 $r10,$r0
    239a:	48 ff fc 73 	j 1c80 <_vsnprintf+0x504>
    239e:	92 00       	nop16
    23a0:	54 00 80 80 	andi $r0,$r1,#0x80
    23a4:	c0 2f       	beqz38 $r0,2402 <_vsnprintf+0xc86>
    23a6:	02 4e 00 00 	lhi $r4,[$fp+#0x0]
    23aa:	51 ce 00 04 	addi $fp,$fp,#0x4
    23ae:	48 ff ff 04 	j 21b6 <_vsnprintf+0xa3a>
    23b2:	84 20       	movi55 $r1,#0x0
    23b4:	6a 15 00 09 	fmtsr $r1,$fs10
    23b8:	48 ff fb fe 	j 1bb4 <_vsnprintf+0x438>
    23bc:	54 06 80 08 	andi $r0,$r13,#0x8
    23c0:	4e 02 fe 14 	beqz $r0,1fe8 <_vsnprintf+0x86c>
    23c4:	fa 10       	movpi45 $r0,#0x20
    23c6:	b0 52       	addri36.sp $r1,#0x48
    23c8:	38 00 b0 08 	sb $r0,[$r1+($r12<<#0x0)]
    23cc:	50 c6 00 01 	addi $r12,$r12,#0x1
    23d0:	48 ff fe 0c 	j 1fe8 <_vsnprintf+0x86c>
    23d4:	80 4a       	mov55 $r2,$r10
    23d6:	44 c0 00 20 	movi $r12,#0x20
    23da:	48 ff fe 23 	j 2020 <_vsnprintf+0x8a4>
    23de:	92 00       	nop16
    23e0:	22 5e 00 00 	lhsi $r5,[$fp+#0x0]
    23e4:	51 ce 00 04 	addi $fp,$fp,#0x4
    23e8:	48 ff fc 9c 	j 1d20 <_vsnprintf+0x5a4>
    23ec:	5c f4 80 20 	slti $r15,$r9,#0x20
    23f0:	81 89       	mov55 $r12,$r9
    23f2:	4e f3 fe b7 	bnez $r15,2160 <_vsnprintf+0x9e4>
    23f6:	80 4a       	mov55 $r2,$r10
    23f8:	48 ff fe 14 	j 2020 <_vsnprintf+0x8a4>
    23fc:	80 4a       	mov55 $r2,$r10
    23fe:	48 ff fe 0f 	j 201c <_vsnprintf+0x8a0>
    2402:	b4 9c       	lwi450 $r4,[$fp]
    2404:	51 ce 00 04 	addi $fp,$fp,#0x4
    2408:	48 ff fe d7 	j 21b6 <_vsnprintf+0xa3a>
    240c:	81 62       	mov55 $r11,$r2
    240e:	48 ff fe 1f 	j 204c <_vsnprintf+0x8d0>
    2412:	92 00       	nop16
    2414:	6a 25 00 09 	fmtsr $r2,$fs10
    2418:	4e 03 fb e4 	bnez $r0,1be0 <_vsnprintf+0x464>
    241c:	48 ff fc 18 	j 1c4c <_vsnprintf+0x4d0>
    2420:	83 8c       	mov55 $fp,$r12
    2422:	81 4b       	mov55 $r10,$r11
    2424:	48 ff fc 2e 	j 1c80 <_vsnprintf+0x504>
    2428:	81 2a       	mov55 $r9,$r10
    242a:	48 ff fc 43 	j 1cb0 <_vsnprintf+0x534>
    242e:	80 2b       	mov55 $r1,$r11
    2430:	85 60       	movi55 $r11,#0x0
    2432:	48 ff fd 23 	j 1e78 <_vsnprintf+0x6fc>
    2436:	92 00       	nop16

00002438 <printf>:
    2438:	3b ff fc bc 	smw.adm $sp,[$sp],$sp,#0x2    ! {$lp}
    243c:	ef f4       	addi10.sp #-12
    243e:	84 5f       	movi55 $r2,#-1
    2440:	80 60       	mov55 $r3,$r0
    2442:	b0 41       	addri36.sp $r1,#0x4
    2444:	b1 04       	addri36.sp $r4,#0x10
    2446:	44 00 17 58 	movi $r0,#0x1758
    244a:	49 ff f9 99 	jal 177c <_vsnprintf>
    244e:	92 00       	nop16
    2450:	ec 0c       	addi10.sp #0xc
    2452:	3b ff fc 84 	lmw.bim $sp,[$sp],$sp,#0x2    ! {$lp}
    2456:	dd 9e       	ret5 $lp

00002458 <pow10.3224>:
    2458:	00 00 00 00 00 00 f0 3f 00 00 00 00 00 00 24 40     .......?......$@
    2468:	00 00 00 00 00 00 59 40 00 00 00 00 00 40 8f 40     ......Y@.....@.@
    2478:	00 00 00 00 00 88 c3 40 00 00 00 00 00 6a f8 40     .......@.....j.@
    2488:	00 00 00 00 80 84 2e 41 00 00 00 00 d0 12 63 41     .......A......cA
    2498:	00 00 00 00 84 d7 97 41 00 00 00 00 65 cd cd 41     .......A....e..A
	...
    24b4:	00 00 e0 3f 00 00 c0 ff ff ff df 41                 ...?.......A

000024c0 <__ota_pre_c_init>:
    24c0:	3e 08 00 88 	addi.gp $r0,#0x88
    24c4:	3e 18 31 80 	addi.gp $r1,#0x3180
    24c8:	9a 88       	sub333 $r2,$r1,$r0
    24ca:	c2 19       	beqz38 $r2,24fc <clear_end>
    24cc:	54 71 00 1f 	andi $r7,$r2,#0x1f
    24d0:	84 60       	movi55 $r3,#0x0
    24d2:	84 80       	movi55 $r4,#0x0
    24d4:	84 a0       	movi55 $r5,#0x0
    24d6:	84 c0       	movi55 $r6,#0x0
    24d8:	85 00       	movi55 $r8,#0x0
    24da:	85 20       	movi55 $r9,#0x0
    24dc:	85 40       	movi55 $r10,#0x0
    24de:	c7 09       	beqz38 $r7,24f0 <clear_loop>
    24e0:	9a 97       	sub333 $r2,$r2,$r7

000024e2 <first_clear>:
    24e2:	aa c1       	swi333.bi $r3,[$r0],#0x4
    24e4:	9f fc       	subi333 $r7,$r7,#0x4
    24e6:	cf fe       	bnez38 $r7,24e2 <first_clear>
    24e8:	44 1f ff e0 	movi $r1,#-32
    24ec:	fe 8e       	and33 $r2,$r1
    24ee:	c2 07       	beqz38 $r2,24fc <clear_end>

000024f0 <clear_loop>:
    24f0:	3a 30 28 24 	smw.bim $r3,[$r0],$r10,#0x0    ! {$r3~$r10}
    24f4:	50 21 7f e0 	addi $r2,$r2,#-32
    24f8:	4e 24 ff fc 	bgez $r2,24f0 <clear_loop>

000024fc <clear_end>:
    24fc:	3f c8 80 00 	addi.gp $fp,#0x8000
    2500:	3f f8 80 00 	addi.gp $sp,#0x8000
    2504:	dd 9e       	ret5 $lp
    2506:	92 00       	nop16
    2508:	76 31 2e 30 	*unknown*
    250c:	2e 30 00 00 	lbi.gp $r3,[+#0x0]

00002510 <_ota_nds32_init_mem>:
    2510:	3e 58 00 00 	addi.gp $r5,#0x0
    2514:	3e 48 00 88 	addi.gp $r4,#0x88
    2518:	8a 85       	sub45 $r4,$r5
    251a:	47 03 00 0b 	sethi $r16,#0x3000b
    251e:	59 08 07 38 	ori $r16,$r16,#0x738
    2522:	80 64       	mov55 $r3,$r4
    2524:	80 25       	mov55 $r1,$r5
    2526:	80 50       	mov55 $r2,$r16
    2528:	0c 01 00 01 	lwi.bi $r0,[$r2],#0x4
    252c:	1c 00 80 01 	swi.bi $r0,[$r1],#0x4
    2530:	50 31 ff fc 	addi $r3,$r3,#-4
    2534:	4e 36 ff fa 	bgtz $r3,2528 <_ota_nds32_init_mem+0x18>
    2538:	dd 9e       	ret5 $lp
    253a:	92 00       	nop16
    253c:	00 b0 b0 cc 	lbi $r11,[$r1+#0x30cc]
    2540:	11 98 98 24 	sbi $r25,[$r17+#0x1824]
    2544:	14 b0 b0 cc 	swi $r11,[$r1+#0xc330]
    2548:	42 f2 71 00 	kmmwb2 $r15,$r4,$fp
    254c:	1c b0 b0 cc 	swi.bi $r11,[$r1],#0xc330
    2550:	95 b1       	slli333 $r6,$r6,#0x1
    2552:	2a 27 0c b0 	lhsi.bi $r2,[$r14],#0x1960
    2556:	b0 cc       	addri36.sp $r3,#0x30
    2558:	80 f9       	mov55 $r7,$r25
    255a:	58 58 58 b0 	ori $r5,$r16,#0x58b0
    255e:	b0 cc       	addri36.sp $r3,#0x30
    2560:	1a 0a 00 00 	shi.bi $r0,[$r20],#0x0

00002564 <_ota_soc_clk_init>:
    2564:	46 0c 00 00 	sethi $r0,#0xc0000
    2568:	84 40       	movi55 $r2,#0x0
    256a:	14 20 00 70 	swi $r2,[$r0+#0x1c0]
    256e:	a0 46       	lwi333 $r1,[$r0+#0x18]
    2570:	e6 23       	slti45 $r1,#0x3
    2572:	e9 09       	bnezs8 2584 <_ota_soc_clk_init+0x20>
    2574:	46 12 12 10 	sethi $r1,#0x21210
    2578:	50 10 80 c9 	addi $r1,$r1,#0xc9
    257c:	14 10 00 15 	swi $r1,[$r0+#0x54]
    2580:	64 00 00 40 	standby wait_done
    2584:	44 10 25 3c 	movi $r1,#0x253c
    2588:	3b 00 e4 00 	lmw.bi $r16,[$r1],$r25,#0x0    ! {$r16~$r25}
    258c:	80 1f       	mov55 $r0,$sp
    258e:	3b 0f e4 20 	smw.bi $r16,[$sp],$r25,#0x0    ! {$r16~$r25}
    2592:	84 20       	movi55 $r1,#0x0
    2594:	38 20 04 02 	lw $r2,[$r0+($r1<<#0x0)]
    2598:	98 c1       	add333 $r3,$r0,$r1
    259a:	a0 d9       	lwi333 $r3,[$r3+#0x4]
    259c:	8c 28       	addi45 $r1,#0x8
    259e:	b6 62       	swi450 $r3,[$r2]
    25a0:	5a 18 28 fa 	bnec $r1,#0x28,2594 <_ota_soc_clk_init+0x30>
    25a4:	44 00 00 1a 	movi $r0,#0x1a
    25a8:	5a 00 1a 2c 	beqc $r0,#0x1a,2600 <_ota_soc_clk_init+0x9c>
    25ac:	e4 1b       	sltsi45 $r0,#0x1b
    25ae:	e8 09       	beqzs8 25c0 <_ota_soc_clk_init+0x5c>
    25b0:	5a 00 18 1f 	beqc $r0,#0x18,25ee <_ota_soc_clk_init+0x8a>
    25b4:	e4 19       	sltsi45 $r0,#0x19
    25b6:	e8 13       	beqzs8 25dc <_ota_soc_clk_init+0x78>
    25b8:	5a 00 10 18 	beqc $r0,#0x10,25e8 <_ota_soc_clk_init+0x84>
    25bc:	48 00 00 0e 	j 25d8 <_ota_soc_clk_init+0x74>
    25c0:	5a 00 28 23 	beqc $r0,#0x28,2606 <_ota_soc_clk_init+0xa2>
    25c4:	5e f0 00 29 	sltsi $r15,$r0,#0x29
    25c8:	e8 04       	beqzs8 25d0 <_ota_soc_clk_init+0x6c>
    25ca:	5a 00 20 15 	beqc $r0,#0x20,25f4 <_ota_soc_clk_init+0x90>
    25ce:	d5 05       	j8 25d8 <_ota_soc_clk_init+0x74>
    25d0:	5a 00 34 09 	beqc $r0,#0x34,25e2 <_ota_soc_clk_init+0x7e>
    25d4:	5a 00 c0 13 	beqc $r0,#0xc0,25fa <_ota_soc_clk_init+0x96>
    25d8:	84 20       	movi55 $r1,#0x0
    25da:	d5 14       	j8 2602 <_ota_soc_clk_init+0x9e>
    25dc:	84 21       	movi55 $r1,#0x1
    25de:	84 46       	movi55 $r2,#0x6
    25e0:	d5 16       	j8 260c <_ota_soc_clk_init+0xa8>
    25e2:	84 21       	movi55 $r1,#0x1
    25e4:	84 4a       	movi55 $r2,#0xa
    25e6:	d5 13       	j8 260c <_ota_soc_clk_init+0xa8>
    25e8:	84 20       	movi55 $r1,#0x0
    25ea:	80 41       	mov55 $r2,$r1
    25ec:	d5 10       	j8 260c <_ota_soc_clk_init+0xa8>
    25ee:	84 20       	movi55 $r1,#0x0
    25f0:	84 41       	movi55 $r2,#0x1
    25f2:	d5 0d       	j8 260c <_ota_soc_clk_init+0xa8>
    25f4:	84 20       	movi55 $r1,#0x0
    25f6:	84 47       	movi55 $r2,#0x7
    25f8:	d5 0a       	j8 260c <_ota_soc_clk_init+0xa8>
    25fa:	84 20       	movi55 $r1,#0x0
    25fc:	84 48       	movi55 $r2,#0x8
    25fe:	d5 07       	j8 260c <_ota_soc_clk_init+0xa8>
    2600:	84 21       	movi55 $r1,#0x1
    2602:	84 42       	movi55 $r2,#0x2
    2604:	d5 04       	j8 260c <_ota_soc_clk_init+0xa8>
    2606:	84 20       	movi55 $r1,#0x0
    2608:	84 43       	movi55 $r2,#0x3
    260a:	92 00       	nop16
    260c:	46 3c cb 0b 	sethi $r3,#0xccb0b
    2610:	a1 1d       	lwi333 $r4,[$r3+#0x14]
    2612:	66 42 10 00 	bitci $r4,$r4,#0x1000
    2616:	40 12 05 84 	or_slli $r1,$r4,$r1,#0xc
    261a:	a8 5d       	swi333 $r1,[$r3+#0x14]
    261c:	a0 5d       	lwi333 $r1,[$r3+#0x14]
    261e:	66 10 80 0f 	bitci $r1,$r1,#0xf
    2622:	fe 8f       	or33 $r2,$r1
    2624:	a8 9d       	swi333 $r2,[$r3+#0x14]
    2626:	a0 59       	lwi333 $r1,[$r3+#0x4]
    2628:	42 10 fc 08 	bset $r1,$r1,#0x1f
    262c:	a8 59       	swi333 $r1,[$r3+#0x4]
    262e:	46 1c 00 00 	sethi $r1,#0xc0000
    2632:	50 10 80 5c 	addi $r1,$r1,#0x5c
    2636:	b4 41       	lwi450 $r2,[$r1]
    2638:	42 21 08 0b 	btst $r2,$r2,#0x2
    263c:	5a 28 01 fd 	bnec $r2,#0x1,2636 <_ota_soc_clk_init+0xd2>
    2640:	44 30 01 40 	movi $r3,#0x140
    2644:	46 1c cb 0b 	sethi $r1,#0xccb0b
    2648:	5a 30 f0 08 	beqc $r3,#0xf0,2658 <_ota_soc_clk_init+0xf4>
    264c:	5a 39 e0 0a 	bnec $r3,#0x1e0,2660 <_ota_soc_clk_init+0xfc>
    2650:	a0 8c       	lwi333 $r2,[$r1+#0x10]
    2652:	58 21 00 38 	ori $r2,$r2,#0x38
    2656:	a8 8c       	swi333 $r2,[$r1+#0x10]
    2658:	a0 8e       	lwi333 $r2,[$r1+#0x18]
    265a:	42 21 3c 08 	bset $r2,$r2,#0xf
    265e:	d5 04       	j8 2666 <_ota_soc_clk_init+0x102>
    2660:	a0 8e       	lwi333 $r2,[$r1+#0x18]
    2662:	42 21 3c 09 	bclr $r2,$r2,#0xf
    2666:	a8 8e       	swi333 $r2,[$r1+#0x18]
    2668:	46 2c 00 00 	sethi $r2,#0xc0000
    266c:	04 11 00 17 	lwi $r1,[$r2+#0x5c]
    2670:	92 28       	srli45 $r1,#0x8
    2672:	96 67       	fexti33 $r1,#0x4
    2674:	5a 18 03 fc 	bnec $r1,#0x3,266c <_ota_soc_clk_init+0x108>
    2678:	46 1c 00 00 	sethi $r1,#0xc0000
    267c:	50 10 80 5c 	addi $r1,$r1,#0x5c
    2680:	b4 41       	lwi450 $r2,[$r1]
    2682:	5a 2b 07 ff 	bnec $r2,#0x307,2680 <_ota_soc_clk_init+0x11c>
    2686:	46 1c 00 00 	sethi $r1,#0xc0000
    268a:	44 20 00 a0 	movi $r2,#0xa0
    268e:	58 10 81 00 	ori $r1,$r1,#0x100
    2692:	5a 20 50 08 	beqc $r2,#0x50,26a2 <_ota_soc_clk_init+0x13e>
    2696:	5a 28 a0 0a 	bnec $r2,#0xa0,26aa <_ota_soc_clk_init+0x146>
    269a:	a8 8e       	swi333 $r2,[$r1+#0x18]
    269c:	46 19 00 00 	sethi $r1,#0x90000
    26a0:	d5 0a       	j8 26b4 <_ota_soc_clk_init+0x150>
    26a2:	a8 8e       	swi333 $r2,[$r1+#0x18]
    26a4:	46 18 00 00 	sethi $r1,#0x80000
    26a8:	d5 06       	j8 26b4 <_ota_soc_clk_init+0x150>
    26aa:	fa 58       	movpi45 $r2,#0x28
    26ac:	a8 8e       	swi333 $r2,[$r1+#0x18]
    26ae:	46 14 00 00 	sethi $r1,#0x40000
    26b2:	92 00       	nop16
    26b4:	42 00 7c 08 	bset $r0,$r0,#0x1f
    26b8:	46 2c 00 00 	sethi $r2,#0xc0000
    26bc:	14 01 00 82 	swi $r0,[$r2+#0x208]
    26c0:	14 01 00 86 	swi $r0,[$r2+#0x218]
    26c4:	14 01 00 8a 	swi $r0,[$r2+#0x228]
    26c8:	14 01 00 8e 	swi $r0,[$r2+#0x238]
    26cc:	14 01 00 92 	swi $r0,[$r2+#0x248]
    26d0:	14 01 00 96 	swi $r0,[$r2+#0x258]
    26d4:	14 01 00 9a 	swi $r0,[$r2+#0x268]
    26d8:	14 01 00 9e 	swi $r0,[$r2+#0x278]
    26dc:	5a 30 f0 18 	beqc $r3,#0xf0,270c <_ota_soc_clk_init+0x1a8>
    26e0:	5e f1 80 f1 	sltsi $r15,$r3,#0xf1
    26e4:	e8 08       	beqzs8 26f4 <_ota_soc_clk_init+0x190>
    26e6:	5a 30 50 17 	beqc $r3,#0x50,2714 <_ota_soc_clk_init+0x1b0>
    26ea:	5a 38 a0 19 	bnec $r3,#0xa0,271c <_ota_soc_clk_init+0x1b8>
    26ee:	42 10 ec 08 	bset $r1,$r1,#0x1b
    26f2:	d5 17       	j8 2720 <_ota_soc_clk_init+0x1bc>
    26f4:	5a 31 40 08 	beqc $r3,#0x140,2704 <_ota_soc_clk_init+0x1a0>
    26f8:	5a 39 e0 12 	bnec $r3,#0x1e0,271c <_ota_soc_clk_init+0x1b8>
    26fc:	46 00 c0 00 	sethi $r0,#0xc000
    2700:	48 00 00 04 	j 2708 <_ota_soc_clk_init+0x1a4>
    2704:	46 00 a0 00 	sethi $r0,#0xa000
    2708:	fe 47       	or33 $r1,$r0
    270a:	d5 0b       	j8 2720 <_ota_soc_clk_init+0x1bc>
    270c:	46 00 90 00 	sethi $r0,#0x9000
    2710:	48 ff ff fc 	j 2708 <_ota_soc_clk_init+0x1a4>
    2714:	42 10 e8 08 	bset $r1,$r1,#0x1a
    2718:	48 00 00 04 	j 2720 <_ota_soc_clk_init+0x1bc>
    271c:	42 10 e0 08 	bset $r1,$r1,#0x18
    2720:	58 10 80 c9 	ori $r1,$r1,#0xc9
    2724:	46 3c 00 00 	sethi $r3,#0xc0000
    2728:	14 11 00 15 	swi $r1,[$r2+#0x54]
    272c:	64 00 00 40 	standby wait_done
    2730:	44 00 00 50 	movi $r0,#0x50
    2734:	5a 08 50 0a 	bnec $r0,#0x50,2748 <_ota_soc_clk_init+0x1e4>
    2738:	04 01 80 0f 	lwi $r0,[$r3+#0x3c]
    273c:	66 00 00 0f 	bitci $r0,$r0,#0xf
    2740:	58 00 00 08 	ori $r0,$r0,#0x8
    2744:	48 00 00 08 	j 2754 <_ota_soc_clk_init+0x1f0>
    2748:	04 01 80 0f 	lwi $r0,[$r3+#0x3c]
    274c:	66 00 00 0f 	bitci $r0,$r0,#0xf
    2750:	58 00 00 04 	ori $r0,$r0,#0x4
    2754:	14 01 80 0f 	swi $r0,[$r3+#0x3c]
    2758:	dd 9e       	ret5 $lp
    275a:	92 00       	nop16

0000275c <my_memcmp>:
    275c:	c2 12       	beqz38 $r2,2780 <my_memcmp+0x24>
    275e:	a7 00       	lbi333 $r4,[$r0+#0x0]
    2760:	a7 48       	lbi333 $r5,[$r1+#0x0]
    2762:	4c 42 c0 11 	bne $r4,$r5,2784 <my_memcmp+0x28>
    2766:	9c c1       	addi333 $r3,$r0,#0x1
    2768:	8c 21       	addi45 $r1,#0x1
    276a:	88 40       	add45 $r2,$r0
    276c:	d5 08       	j8 277c <my_memcmp+0x20>
    276e:	92 00       	nop16
    2770:	08 41 80 01 	lbi.bi $r4,[$r3],#0x1
    2774:	08 50 80 01 	lbi.bi $r5,[$r1],#0x1
    2778:	4c 42 c0 06 	bne $r4,$r5,2784 <my_memcmp+0x28>
    277c:	4c 31 7f fa 	bne $r3,$r2,2770 <my_memcmp+0x14>
    2780:	84 00       	movi55 $r0,#0x0
    2782:	dd 9e       	ret5 $lp
    2784:	9a 25       	sub333 $r0,$r4,$r5
    2786:	dd 9e       	ret5 $lp

00002788 <my_strlen>:
    2788:	20 20 00 00 	lbsi $r2,[$r0+#0x0]
    278c:	9c 41       	addi333 $r1,$r0,#0x1
    278e:	c2 07       	beqz38 $r2,279c <my_strlen+0x14>
    2790:	9a c8       	sub333 $r3,$r1,$r0
    2792:	28 20 80 01 	lbsi.bi $r2,[$r1],#0x1
    2796:	ca fd       	bnez38 $r2,2790 <my_strlen+0x8>
    2798:	80 03       	mov55 $r0,$r3
    279a:	dd 9e       	ret5 $lp
    279c:	84 60       	movi55 $r3,#0x0
    279e:	d5 fd       	j8 2798 <my_strlen+0x10>

000027a0 <serial_tx>:
    27a0:	46 1c 00 00 	sethi $r1,#0xc0000
    27a4:	14 00 83 00 	swi $r0,[$r1+#0xc00]
    27a8:	dd 9e       	ret5 $lp
    27aa:	92 00       	nop16

000027ac <body>:
    27ac:	3a 6f ba bc 	smw.adm $r6,[$sp],$r14,#0xa    ! {$r6~$r14, $fp, $lp}
    27b0:	ef c4       	addi10.sp #-60
    27b2:	36 3f 80 00 	fsdi $fd3,[$sp+#0x0]
    27b6:	36 4f 80 02 	fsdi $fd4,[$sp+#0x8]
    27ba:	36 5f 80 04 	fsdi $fd5,[$sp+#0x10]
    27be:	36 6f 80 06 	fsdi $fd6,[$sp+#0x18]
    27c2:	36 7f 80 08 	fsdi $fd7,[$sp+#0x20]
    27c6:	36 8f 80 0a 	fsdi $fd8,[$sp+#0x28]
    27ca:	36 9f 80 0c 	fsdi $fd9,[$sp+#0x30]
    27ce:	46 3d 76 aa 	sethi $r3,#0xd76aa
    27d2:	6a 28 80 09 	fmtsr $r2,$fs17
    27d6:	50 21 84 78 	addi $r2,$r3,#0x478
    27da:	46 3e 8c 7b 	sethi $r3,#0xe8c7b
    27de:	6a 2c 80 09 	fmtsr $r2,$fs25
    27e2:	50 21 87 56 	addi $r2,$r3,#0x756
    27e6:	46 32 42 07 	sethi $r3,#0x24207
    27ea:	6a 2c 00 09 	fmtsr $r2,$fs24
    27ee:	50 21 80 db 	addi $r2,$r3,#0xdb
    27f2:	46 3c 1b dc 	sethi $r3,#0xc1bdc
    27f6:	6a 2b 80 09 	fmtsr $r2,$fs23
    27fa:	50 21 8e ee 	addi $r2,$r3,#0xeee
    27fe:	46 3f 57 c0 	sethi $r3,#0xf57c0
    2802:	6a 2b 00 09 	fmtsr $r2,$fs22
    2806:	50 21 8f af 	addi $r2,$r3,#0xfaf
    280a:	46 34 78 7c 	sethi $r3,#0x4787c
    280e:	6a 22 80 09 	fmtsr $r2,$fs5
    2812:	50 21 86 2a 	addi $r2,$r3,#0x62a
    2816:	46 3a 83 04 	sethi $r3,#0xa8304
    281a:	6a 22 00 09 	fmtsr $r2,$fs4
    281e:	50 21 86 13 	addi $r2,$r3,#0x613
    2822:	46 3f d4 69 	sethi $r3,#0xfd469
    2826:	6a 21 80 09 	fmtsr $r2,$fs3
    282a:	50 21 85 01 	addi $r2,$r3,#0x501
    282e:	46 36 98 09 	sethi $r3,#0x69809
    2832:	6a 21 00 09 	fmtsr $r2,$fs2
    2836:	50 21 88 d8 	addi $r2,$r3,#0x8d8
    283a:	46 38 b4 4f 	sethi $r3,#0x8b44f
    283e:	6a 20 80 09 	fmtsr $r2,$fs1
    2842:	47 e8 95 cd 	sethi $lp,#0x895cd
    2846:	50 21 87 af 	addi $r2,$r3,#0x7af
    284a:	6a 20 00 09 	fmtsr $r2,$fs0
    284e:	47 c6 b9 01 	sethi $fp,#0x6b901
    2852:	50 2f 07 be 	addi $r2,$lp,#0x7be
    2856:	6a 2f 00 09 	fmtsr $r2,$fs30
    285a:	46 ef d9 87 	sethi $r14,#0xfd987
    285e:	50 2e 01 22 	addi $r2,$fp,#0x122
    2862:	6a 2e 80 09 	fmtsr $r2,$fs29
    2866:	46 da 67 94 	sethi $r13,#0xa6794
    286a:	50 27 01 93 	addi $r2,$r14,#0x193
    286e:	6a 2e 00 09 	fmtsr $r2,$fs28
    2872:	46 c4 9b 40 	sethi $r12,#0x49b40
    2876:	50 26 83 8e 	addi $r2,$r13,#0x38e
    287a:	6a 2d 80 09 	fmtsr $r2,$fs27
    287e:	46 bf 61 e2 	sethi $r11,#0xf61e2
    2882:	50 26 08 21 	addi $r2,$r12,#0x821
    2886:	6a 2d 00 09 	fmtsr $r2,$fs26
    288a:	46 ac 04 0b 	sethi $r10,#0xc040b
    288e:	50 25 85 62 	addi $r2,$r11,#0x562
    2892:	6a 27 00 09 	fmtsr $r2,$fs14
    2896:	46 92 65 e5 	sethi $r9,#0x265e5
    289a:	50 25 03 40 	addi $r2,$r10,#0x340
    289e:	6a 26 00 09 	fmtsr $r2,$fs12
    28a2:	46 8e 9b 6c 	sethi $r8,#0xe9b6c
    28a6:	50 24 8a 51 	addi $r2,$r9,#0xa51
    28aa:	6a 25 80 09 	fmtsr $r2,$fs11
    28ae:	46 7d 62 f1 	sethi $r7,#0xd62f1
    28b2:	50 24 07 aa 	addi $r2,$r8,#0x7aa
    28b6:	6a 25 00 09 	fmtsr $r2,$fs10
    28ba:	46 60 24 41 	sethi $r6,#0x2441
    28be:	50 23 80 5d 	addi $r2,$r7,#0x5d
    28c2:	6a 24 80 09 	fmtsr $r2,$fs9
    28c6:	46 fd 8a 1e 	sethi $r15,#0xd8a1e
    28ca:	50 23 04 53 	addi $r2,$r6,#0x453
    28ce:	6a 24 00 09 	fmtsr $r2,$fs8
    28d2:	47 9e 7d 3f 	sethi $r25,#0xe7d3f
    28d6:	50 27 86 81 	addi $r2,$r15,#0x681
    28da:	6a 23 80 09 	fmtsr $r2,$fs7
    28de:	50 2c 8b c8 	addi $r2,$r25,#0xbc8
    28e2:	6a 23 00 09 	fmtsr $r2,$fs6
    28e6:	31 f0 00 02 	flsi $fs31,[$r0+#0x8]
    28ea:	31 20 00 05 	flsi $fs18,[$r0+#0x14]
    28ee:	05 50 00 03 	lwi $r21,[$r0+#0xc]
    28f2:	05 60 00 04 	lwi $r22,[$r0+#0x10]
    28f6:	a6 c9       	lbi333 $r3,[$r1+#0x1]
    28f8:	a7 0a       	lbi333 $r4,[$r1+#0x2]
    28fa:	a6 88       	lbi333 $r2,[$r1+#0x0]
    28fc:	a7 4b       	lbi333 $r5,[$r1+#0x3]
    28fe:	40 42 40 08 	slli $r4,$r4,#0x10
    2902:	40 31 a0 08 	slli $r3,$r3,#0x8
    2906:	fe e7       	or33 $r3,$r4
    2908:	fe d7       	or33 $r3,$r2
    290a:	40 42 e0 08 	slli $r4,$r5,#0x18
    290e:	41 81 90 04 	or $r24,$r3,$r4
    2912:	15 80 00 16 	swi $r24,[$r0+#0x58]
    2916:	a6 cd       	lbi333 $r3,[$r1+#0x5]
    2918:	a7 0e       	lbi333 $r4,[$r1+#0x6]
    291a:	a6 8c       	lbi333 $r2,[$r1+#0x4]
    291c:	a7 4f       	lbi333 $r5,[$r1+#0x7]
    291e:	40 42 40 08 	slli $r4,$r4,#0x10
    2922:	40 31 a0 08 	slli $r3,$r3,#0x8
    2926:	fe e7       	or33 $r3,$r4
    2928:	fe d7       	or33 $r3,$r2
    292a:	40 42 e0 08 	slli $r4,$r5,#0x18
    292e:	40 b1 90 04 	or $r11,$r3,$r4
    2932:	14 b0 00 17 	swi $r11,[$r0+#0x5c]
    2936:	00 30 80 09 	lbi $r3,[$r1+#0x9]
    293a:	00 50 80 0a 	lbi $r5,[$r1+#0xa]
    293e:	00 20 80 08 	lbi $r2,[$r1+#0x8]
    2942:	00 40 80 0b 	lbi $r4,[$r1+#0xb]
    2946:	40 52 c0 08 	slli $r5,$r5,#0x10
    294a:	40 31 a0 08 	slli $r3,$r3,#0x8
    294e:	fe ef       	or33 $r3,$r5
    2950:	fe d7       	or33 $r3,$r2
    2952:	40 52 60 08 	slli $r5,$r4,#0x18
    2956:	40 71 94 04 	or $r7,$r3,$r5
    295a:	14 70 00 18 	swi $r7,[$r0+#0x60]
    295e:	00 30 80 0d 	lbi $r3,[$r1+#0xd]
    2962:	00 40 80 0e 	lbi $r4,[$r1+#0xe]
    2966:	00 20 80 0c 	lbi $r2,[$r1+#0xc]
    296a:	00 50 80 0f 	lbi $r5,[$r1+#0xf]
    296e:	40 42 40 08 	slli $r4,$r4,#0x10
    2972:	40 31 a0 08 	slli $r3,$r3,#0x8
    2976:	fe e7       	or33 $r3,$r4
    2978:	fe d7       	or33 $r3,$r2
    297a:	40 42 e0 08 	slli $r4,$r5,#0x18
    297e:	40 d1 90 04 	or $r13,$r3,$r4
    2982:	14 d0 00 19 	swi $r13,[$r0+#0x64]
    2986:	00 30 80 11 	lbi $r3,[$r1+#0x11]
    298a:	00 50 80 12 	lbi $r5,[$r1+#0x12]
    298e:	00 20 80 10 	lbi $r2,[$r1+#0x10]
    2992:	40 52 c0 08 	slli $r5,$r5,#0x10
    2996:	40 31 a0 08 	slli $r3,$r3,#0x8
    299a:	00 40 80 13 	lbi $r4,[$r1+#0x13]
    299e:	fe ef       	or33 $r3,$r5
    29a0:	fe d7       	or33 $r3,$r2
    29a2:	6a 29 00 01 	fmfsr $r2,$fs18
    29a6:	40 52 60 08 	slli $r5,$r4,#0x18
    29aa:	40 41 94 04 	or $r4,$r3,$r5
    29ae:	6b 0c 80 01 	fmfsr $r16,$fs25
    29b2:	40 31 58 03 	xor $r3,$r2,$r22
    29b6:	6a 2f 80 01 	fmfsr $r2,$fs31
    29ba:	14 40 00 1a 	swi $r4,[$r0+#0x68]
    29be:	89 82       	add45 $r16,$r2
    29c0:	6a 29 00 01 	fmfsr $r2,$fs18
    29c4:	00 50 80 16 	lbi $r5,[$r1+#0x16]
    29c8:	01 30 80 15 	lbi $r19,[$r1+#0x15]
    29cc:	40 31 d4 02 	and $r3,$r3,$r21
    29d0:	fe d5       	xor33 $r3,$r2
    29d2:	00 60 80 14 	lbi $r6,[$r1+#0x14]
    29d6:	00 20 80 17 	lbi $r2,[$r1+#0x17]
    29da:	88 70       	add45 $r3,$r16
    29dc:	41 39 a0 08 	slli $r19,$r19,#0x8
    29e0:	41 02 c0 08 	slli $r16,$r5,#0x10
    29e4:	40 59 c0 04 	or $r5,$r19,$r16
    29e8:	ff 77       	or33 $r5,$r6
    29ea:	41 01 60 08 	slli $r16,$r2,#0x18
    29ee:	88 78       	add45 $r3,$r24
    29f0:	40 f2 c0 04 	or $r15,$r5,$r16
    29f4:	6a 2c 00 01 	fmfsr $r2,$fs24
    29f8:	6a 59 00 01 	fmfsr $r5,$fs18
    29fc:	40 31 e4 0b 	rotri $r3,$r3,#0x19
    2a00:	88 75       	add45 $r3,$r21
    2a02:	41 0b 54 03 	xor $r16,$r22,$r21
    2a06:	14 f0 00 1b 	swi $r15,[$r0+#0x6c]
    2a0a:	41 32 88 00 	add $r19,$r5,$r2
    2a0e:	01 10 80 19 	lbi $r17,[$r1+#0x19]
    2a12:	40 51 c0 02 	and $r5,$r3,$r16
    2a16:	01 20 80 1a 	lbi $r18,[$r1+#0x1a]
    2a1a:	41 02 d8 03 	xor $r16,$r5,$r22
    2a1e:	40 59 ac 00 	add $r5,$r19,$r11
    2a22:	88 b0       	add45 $r5,$r16
    2a24:	41 29 40 08 	slli $r18,$r18,#0x10
    2a28:	41 18 a0 08 	slli $r17,$r17,#0x8
    2a2c:	00 60 80 18 	lbi $r6,[$r1+#0x18]
    2a30:	41 18 c8 04 	or $r17,$r17,$r18
    2a34:	00 20 80 1b 	lbi $r2,[$r1+#0x1b]
    2a38:	6b 2b 80 01 	fmfsr $r18,$fs23
    2a3c:	40 52 d0 0b 	rotri $r5,$r5,#0x14
    2a40:	88 a3       	add45 $r5,$r3
    2a42:	41 01 d4 03 	xor $r16,$r3,$r21
    2a46:	41 3b 48 00 	add $r19,$r22,$r18
    2a4a:	41 18 98 04 	or $r17,$r17,$r6
    2a4e:	41 22 c0 02 	and $r18,$r5,$r16
    2a52:	41 01 60 08 	slli $r16,$r2,#0x18
    2a56:	40 98 c0 04 	or $r9,$r17,$r16
    2a5a:	41 09 54 03 	xor $r16,$r18,$r21
    2a5e:	41 29 9c 00 	add $r18,$r19,$r7
    2a62:	14 90 00 1c 	swi $r9,[$r0+#0x70]
    2a66:	89 d0       	add45 $r18,$r16
    2a68:	01 10 80 1d 	lbi $r17,[$r1+#0x1d]
    2a6c:	01 40 80 1e 	lbi $r20,[$r1+#0x1e]
    2a70:	41 29 3c 0b 	rotri $r18,$r18,#0xf
    2a74:	6b 3b 00 01 	fmfsr $r19,$fs22
    2a78:	89 c5       	add45 $r18,$r5
    2a7a:	41 02 8c 03 	xor $r16,$r5,$r3
    2a7e:	00 60 80 1c 	lbi $r6,[$r1+#0x1c]
    2a82:	00 20 80 1f 	lbi $r2,[$r1+#0x1f]
    2a86:	89 f5       	add45 $r19,$r21
    2a88:	41 09 40 02 	and $r16,$r18,$r16
    2a8c:	41 4a 40 08 	slli $r20,$r20,#0x10
    2a90:	41 18 a0 08 	slli $r17,$r17,#0x8
    2a94:	41 08 0c 03 	xor $r16,$r16,$r3
    2a98:	41 18 d0 04 	or $r17,$r17,$r20
    2a9c:	89 ed       	add45 $r19,$r13
    2a9e:	41 18 98 04 	or $r17,$r17,$r6
    2aa2:	89 f0       	add45 $r19,$r16
    2aa4:	41 01 60 08 	slli $r16,$r2,#0x18
    2aa8:	41 e8 c0 04 	or $lp,$r17,$r16
    2aac:	41 39 a8 0b 	rotri $r19,$r19,#0xa
    2ab0:	6a 22 80 01 	fmfsr $r2,$fs5
    2ab4:	15 e0 00 1d 	swi $lp,[$r0+#0x74]
    2ab8:	89 f2       	add45 $r19,$r18
    2aba:	41 09 14 03 	xor $r16,$r18,$r5
    2abe:	01 40 80 22 	lbi $r20,[$r1+#0x22]
    2ac2:	01 10 80 21 	lbi $r17,[$r1+#0x21]
    2ac6:	88 44       	add45 $r2,$r4
    2ac8:	41 09 c0 02 	and $r16,$r19,$r16
    2acc:	41 08 14 03 	xor $r16,$r16,$r5
    2ad0:	88 62       	add45 $r3,$r2
    2ad2:	00 20 80 23 	lbi $r2,[$r1+#0x23]
    2ad6:	00 60 80 20 	lbi $r6,[$r1+#0x20]
    2ada:	88 70       	add45 $r3,$r16
    2adc:	41 18 a0 08 	slli $r17,$r17,#0x8
    2ae0:	41 0a 40 08 	slli $r16,$r20,#0x10
    2ae4:	41 18 c0 04 	or $r17,$r17,$r16
    2ae8:	41 41 60 08 	slli $r20,$r2,#0x18
    2aec:	40 31 e4 0b 	rotri $r3,$r3,#0x19
    2af0:	6a 22 00 01 	fmfsr $r2,$fs4
    2af4:	88 73       	add45 $r3,$r19
    2af6:	41 09 c8 03 	xor $r16,$r19,$r18
    2afa:	41 18 98 04 	or $r17,$r17,$r6
    2afe:	40 a8 d0 04 	or $r10,$r17,$r20
    2b02:	41 01 c0 02 	and $r16,$r3,$r16
    2b06:	41 47 88 00 	add $r20,$r15,$r2
    2b0a:	14 a0 00 1e 	swi $r10,[$r0+#0x78]
    2b0e:	41 08 48 03 	xor $r16,$r16,$r18
    2b12:	41 4a 14 00 	add $r20,$r20,$r5
    2b16:	01 10 80 25 	lbi $r17,[$r1+#0x25]
    2b1a:	00 50 80 26 	lbi $r5,[$r1+#0x26]
    2b1e:	41 4a 40 00 	add $r20,$r20,$r16
    2b22:	41 4a 50 0b 	rotri $r20,$r20,#0x14
    2b26:	6b 91 80 01 	fmfsr $r25,$fs3
    2b2a:	00 60 80 24 	lbi $r6,[$r1+#0x24]
    2b2e:	00 20 80 27 	lbi $r2,[$r1+#0x27]
    2b32:	41 4a 0c 00 	add $r20,$r20,$r3
    2b36:	41 01 cc 03 	xor $r16,$r3,$r19
    2b3a:	40 52 c0 08 	slli $r5,$r5,#0x10
    2b3e:	41 18 a0 08 	slli $r17,$r17,#0x8
    2b42:	41 94 e4 00 	add $r25,$r9,$r25
    2b46:	41 0a 40 02 	and $r16,$r20,$r16
    2b4a:	41 18 94 04 	or $r17,$r17,$r5
    2b4e:	41 08 4c 03 	xor $r16,$r16,$r19
    2b52:	40 51 60 08 	slli $r5,$r2,#0x18
    2b56:	89 d9       	add45 $r18,$r25
    2b58:	41 18 98 04 	or $r17,$r17,$r6
    2b5c:	40 68 94 04 	or $r6,$r17,$r5
    2b60:	89 d0       	add45 $r18,$r16
    2b62:	14 60 00 1f 	swi $r6,[$r0+#0x7c]
    2b66:	6a 21 00 01 	fmfsr $r2,$fs2
    2b6a:	41 29 3c 0b 	rotri $r18,$r18,#0xf
    2b6e:	89 d4       	add45 $r18,$r20
    2b70:	00 80 80 29 	lbi $r8,[$r1+#0x29]
    2b74:	01 00 80 2a 	lbi $r16,[$r1+#0x2a]
    2b78:	40 5a 0c 03 	xor $r5,$r20,$r3
    2b7c:	41 1f 08 00 	add $r17,$lp,$r2
    2b80:	40 59 14 02 	and $r5,$r18,$r5
    2b84:	01 90 80 28 	lbi $r25,[$r1+#0x28]
    2b88:	00 20 80 2b 	lbi $r2,[$r1+#0x2b]
    2b8c:	ff 5d       	xor33 $r5,$r3
    2b8e:	89 b3       	add45 $r17,$r19
    2b90:	41 08 40 08 	slli $r16,$r16,#0x10
    2b94:	41 34 20 08 	slli $r19,$r8,#0x8
    2b98:	89 a5       	add45 $r17,$r5
    2b9a:	40 59 c0 04 	or $r5,$r19,$r16
    2b9e:	40 52 e4 04 	or $r5,$r5,$r25
    2ba2:	41 01 60 08 	slli $r16,$r2,#0x18
    2ba6:	40 c2 c0 04 	or $r12,$r5,$r16
    2baa:	6a 20 80 01 	fmfsr $r2,$fs1
    2bae:	41 18 a8 0b 	rotri $r17,$r17,#0xa
    2bb2:	14 c0 00 20 	swi $r12,[$r0+#0x80]
    2bb6:	89 b2       	add45 $r17,$r18
    2bb8:	41 39 50 03 	xor $r19,$r18,$r20
    2bbc:	00 50 80 2e 	lbi $r5,[$r1+#0x2e]
    2bc0:	41 05 08 00 	add $r16,$r10,$r2
    2bc4:	41 38 cc 02 	and $r19,$r17,$r19
    2bc8:	00 20 80 2d 	lbi $r2,[$r1+#0x2d]
    2bcc:	41 39 d0 03 	xor $r19,$r19,$r20
    2bd0:	89 83       	add45 $r16,$r3
    2bd2:	89 93       	add45 $r16,$r19
    2bd4:	40 21 20 08 	slli $r2,$r2,#0x8
    2bd8:	41 32 c0 08 	slli $r19,$r5,#0x10
    2bdc:	00 80 80 2c 	lbi $r8,[$r1+#0x2c]
    2be0:	01 90 80 2f 	lbi $r25,[$r1+#0x2f]
    2be4:	41 31 4c 04 	or $r19,$r2,$r19
    2be8:	41 08 64 0b 	rotri $r16,$r16,#0x19
    2bec:	6a 20 00 01 	fmfsr $r2,$fs0
    2bf0:	89 91       	add45 $r16,$r17
    2bf2:	40 38 c8 03 	xor $r3,$r17,$r18
    2bf6:	41 39 a0 04 	or $r19,$r19,$r8
    2bfa:	88 46       	add45 $r2,$r6
    2bfc:	40 38 0c 02 	and $r3,$r16,$r3
    2c00:	40 5c e0 08 	slli $r5,$r25,#0x18
    2c04:	40 59 94 04 	or $r5,$r19,$r5
    2c08:	40 31 c8 03 	xor $r3,$r3,$r18
    2c0c:	41 41 50 00 	add $r20,$r2,$r20
    2c10:	14 50 00 21 	swi $r5,[$r0+#0x84]
    2c14:	41 4a 0c 00 	add $r20,$r20,$r3
    2c18:	00 80 80 31 	lbi $r8,[$r1+#0x31]
    2c1c:	01 30 80 32 	lbi $r19,[$r1+#0x32]
    2c20:	41 4a 50 0b 	rotri $r20,$r20,#0x14
    2c24:	41 4a 40 00 	add $r20,$r20,$r16
    2c28:	40 38 44 03 	xor $r3,$r16,$r17
    2c2c:	44 ef 5b b1 	movi $r14,#-42063
    2c30:	01 90 80 30 	lbi $r25,[$r1+#0x30]
    2c34:	00 20 80 33 	lbi $r2,[$r1+#0x33]
    2c38:	40 e6 38 00 	add $r14,$r12,$r14
    2c3c:	40 3a 0c 02 	and $r3,$r20,$r3
    2c40:	40 84 20 08 	slli $r8,$r8,#0x8
    2c44:	41 39 c0 08 	slli $r19,$r19,#0x10
    2c48:	40 31 c4 03 	xor $r3,$r3,$r17
    2c4c:	89 ce       	add45 $r18,$r14
    2c4e:	41 34 4c 04 	or $r19,$r8,$r19
    2c52:	41 39 e4 04 	or $r19,$r19,$r25
    2c56:	89 c3       	add45 $r18,$r3
    2c58:	40 31 60 08 	slli $r3,$r2,#0x18
    2c5c:	40 e9 8c 04 	or $r14,$r19,$r3
    2c60:	41 29 3c 0b 	rotri $r18,$r18,#0xf
    2c64:	6a 2f 00 01 	fmfsr $r2,$fs30
    2c68:	89 d4       	add45 $r18,$r20
    2c6a:	41 3a 40 03 	xor $r19,$r20,$r16
    2c6e:	14 e0 00 22 	swi $r14,[$r0+#0x88]
    2c72:	00 80 80 35 	lbi $r8,[$r1+#0x35]
    2c76:	88 45       	add45 $r2,$r5
    2c78:	00 30 80 36 	lbi $r3,[$r1+#0x36]
    2c7c:	41 39 4c 02 	and $r19,$r18,$r19
    2c80:	41 39 c0 03 	xor $r19,$r19,$r16
    2c84:	89 a2       	add45 $r17,$r2
    2c86:	01 90 80 37 	lbi $r25,[$r1+#0x37]
    2c8a:	00 20 80 34 	lbi $r2,[$r1+#0x34]
    2c8e:	89 b3       	add45 $r17,$r19
    2c90:	40 84 20 08 	slli $r8,$r8,#0x8
    2c94:	41 31 c0 08 	slli $r19,$r3,#0x10
    2c98:	40 34 4c 04 	or $r3,$r8,$r19
    2c9c:	fe 9f       	or33 $r2,$r3
    2c9e:	40 3c e0 08 	slli $r3,$r25,#0x18
    2ca2:	fe d7       	or33 $r3,$r2
    2ca4:	14 30 00 23 	swi $r3,[$r0+#0x8c]
    2ca8:	01 c0 80 39 	lbi $fp,[$r1+#0x39]
    2cac:	6a 2e 80 01 	fmfsr $r2,$fs29
    2cb0:	41 ce 20 08 	slli $fp,$fp,#0x8
    2cb4:	00 80 80 3a 	lbi $r8,[$r1+#0x3a]
    2cb8:	88 4e       	add45 $r2,$r14
    2cba:	01 90 80 38 	lbi $r25,[$r1+#0x38]
    2cbe:	82 fc       	mov55 $r23,$fp
    2cc0:	89 82       	add45 $r16,$r2
    2cc2:	41 18 a8 0b 	rotri $r17,$r17,#0xa
    2cc6:	00 20 80 3b 	lbi $r2,[$r1+#0x3b]
    2cca:	40 84 40 08 	slli $r8,$r8,#0x10
    2cce:	6b ce 00 01 	fmfsr $fp,$fs28
    2cd2:	89 b2       	add45 $r17,$r18
    2cd4:	41 39 50 03 	xor $r19,$r18,$r20
    2cd8:	40 8b a0 04 	or $r8,$r23,$r8
    2cdc:	41 c1 f0 00 	add $fp,$r3,$fp
    2ce0:	41 94 64 04 	or $r25,$r8,$r25
    2ce4:	41 38 cc 02 	and $r19,$r17,$r19
    2ce8:	40 21 60 08 	slli $r2,$r2,#0x18
    2cec:	41 39 d0 03 	xor $r19,$r19,$r20
    2cf0:	41 4e 50 00 	add $r20,$fp,$r20
    2cf4:	41 cc 88 04 	or $fp,$r25,$r2
    2cf8:	15 c0 00 24 	swi $fp,[$r0+#0x90]
    2cfc:	00 20 80 3d 	lbi $r2,[$r1+#0x3d]
    2d00:	6a 27 80 09 	fmtsr $r2,$fs15
    2d04:	6a 2d 80 01 	fmfsr $r2,$fs27
    2d08:	89 f0       	add45 $r19,$r16
    2d0a:	88 5c       	add45 $r2,$fp
    2d0c:	41 39 e4 0b 	rotri $r19,$r19,#0x19
    2d10:	89 f1       	add45 $r19,$r17
    2d12:	41 08 c8 03 	xor $r16,$r17,$r18
    2d16:	41 09 c0 02 	and $r16,$r19,$r16
    2d1a:	41 08 48 03 	xor $r16,$r16,$r18
    2d1e:	41 4a 40 00 	add $r20,$r20,$r16
    2d22:	41 4a 50 0b 	rotri $r20,$r20,#0x14
    2d26:	41 4a 4c 00 	add $r20,$r20,$r19
    2d2a:	00 80 80 3e 	lbi $r8,[$r1+#0x3e]
    2d2e:	41 09 c4 03 	xor $r16,$r19,$r17
    2d32:	89 c2       	add45 $r18,$r2
    2d34:	6b 77 80 01 	fmfsr $r23,$fs15
    2d38:	41 0a 40 02 	and $r16,$r20,$r16
    2d3c:	01 90 80 3f 	lbi $r25,[$r1+#0x3f]
    2d40:	00 20 80 3c 	lbi $r2,[$r1+#0x3c]
    2d44:	41 08 44 03 	xor $r16,$r16,$r17
    2d48:	40 84 40 08 	slli $r8,$r8,#0x10
    2d4c:	41 7b a0 08 	slli $r23,$r23,#0x8
    2d50:	89 d0       	add45 $r18,$r16
    2d52:	41 0b a0 04 	or $r16,$r23,$r8
    2d56:	40 28 08 04 	or $r2,$r16,$r2
    2d5a:	41 0c e0 08 	slli $r16,$r25,#0x18
    2d5e:	41 91 40 04 	or $r25,$r2,$r16
    2d62:	41 29 3c 0b 	rotri $r18,$r18,#0xf
    2d66:	6a 2d 00 01 	fmfsr $r2,$fs26
    2d6a:	89 d4       	add45 $r18,$r20
    2d6c:	41 0a 4c 03 	xor $r16,$r20,$r19
    2d70:	88 59       	add45 $r2,$r25
    2d72:	41 09 40 02 	and $r16,$r18,$r16
    2d76:	41 08 4c 03 	xor $r16,$r16,$r19
    2d7a:	89 a2       	add45 $r17,$r2
    2d7c:	89 b0       	add45 $r17,$r16
    2d7e:	41 18 a8 0b 	rotri $r17,$r17,#0xa
    2d82:	89 b2       	add45 $r17,$r18
    2d84:	6a 27 00 01 	fmfsr $r2,$fs14
    2d88:	41 08 c8 03 	xor $r16,$r17,$r18
    2d8c:	88 4b       	add45 $r2,$r11
    2d8e:	41 08 50 02 	and $r16,$r16,$r20
    2d92:	89 e2       	add45 $r19,$r2
    2d94:	41 08 48 03 	xor $r16,$r16,$r18
    2d98:	89 93       	add45 $r16,$r19
    2d9a:	41 08 6c 0b 	rotri $r16,$r16,#0x1b
    2d9e:	89 91       	add45 $r16,$r17
    2da0:	6a 26 00 01 	fmfsr $r2,$fs12
    2da4:	41 38 44 03 	xor $r19,$r16,$r17
    2da8:	88 49       	add45 $r2,$r9
    2daa:	41 39 c8 02 	and $r19,$r19,$r18
    2dae:	41 39 c4 03 	xor $r19,$r19,$r17
    2db2:	41 41 50 00 	add $r20,$r2,$r20
    2db6:	41 4a 4c 00 	add $r20,$r20,$r19
    2dba:	41 4a 5c 0b 	rotri $r20,$r20,#0x17
    2dbe:	41 4a 40 00 	add $r20,$r20,$r16
    2dc2:	6a 25 80 01 	fmfsr $r2,$fs11
    2dc6:	41 3a 40 03 	xor $r19,$r20,$r16
    2dca:	88 45       	add45 $r2,$r5
    2dcc:	41 39 c4 02 	and $r19,$r19,$r17
    2dd0:	41 39 c0 03 	xor $r19,$r19,$r16
    2dd4:	89 c2       	add45 $r18,$r2
    2dd6:	89 d3       	add45 $r18,$r19
    2dd8:	41 29 48 0b 	rotri $r18,$r18,#0x12
    2ddc:	89 d4       	add45 $r18,$r20
    2dde:	6a 25 00 01 	fmfsr $r2,$fs10
    2de2:	41 39 50 03 	xor $r19,$r18,$r20
    2de6:	88 58       	add45 $r2,$r24
    2de8:	41 39 c0 02 	and $r19,$r19,$r16
    2dec:	41 39 d0 03 	xor $r19,$r19,$r20
    2df0:	89 a2       	add45 $r17,$r2
    2df2:	89 b3       	add45 $r17,$r19
    2df4:	41 18 b0 0b 	rotri $r17,$r17,#0xc
    2df8:	89 b2       	add45 $r17,$r18
    2dfa:	6a 24 80 01 	fmfsr $r2,$fs9
    2dfe:	41 38 c8 03 	xor $r19,$r17,$r18
    2e02:	88 4f       	add45 $r2,$r15
    2e04:	41 39 d0 02 	and $r19,$r19,$r20
    2e08:	41 39 c8 03 	xor $r19,$r19,$r18
    2e0c:	89 82       	add45 $r16,$r2
    2e0e:	89 93       	add45 $r16,$r19
    2e10:	41 08 6c 0b 	rotri $r16,$r16,#0x1b
    2e14:	89 91       	add45 $r16,$r17
    2e16:	6a 24 00 01 	fmfsr $r2,$fs8
    2e1a:	41 38 44 03 	xor $r19,$r16,$r17
    2e1e:	88 4c       	add45 $r2,$r12
    2e20:	41 39 c8 02 	and $r19,$r19,$r18
    2e24:	41 41 50 00 	add $r20,$r2,$r20
    2e28:	41 39 c4 03 	xor $r19,$r19,$r17
    2e2c:	89 f4       	add45 $r19,$r20
    2e2e:	41 39 dc 0b 	rotri $r19,$r19,#0x17
    2e32:	89 f0       	add45 $r19,$r16
    2e34:	6a 23 80 01 	fmfsr $r2,$fs7
    2e38:	41 49 c0 03 	xor $r20,$r19,$r16
    2e3c:	88 59       	add45 $r2,$r25
    2e3e:	41 4a 44 02 	and $r20,$r20,$r17
    2e42:	41 4a 40 03 	xor $r20,$r20,$r16
    2e46:	89 c2       	add45 $r18,$r2
    2e48:	89 d4       	add45 $r18,$r20
    2e4a:	41 29 48 0b 	rotri $r18,$r18,#0x12
    2e4e:	89 d3       	add45 $r18,$r19
    2e50:	6a 23 00 01 	fmfsr $r2,$fs6
    2e54:	41 49 4c 03 	xor $r20,$r18,$r19
    2e58:	88 44       	add45 $r2,$r4
    2e5a:	41 4a 40 02 	and $r20,$r20,$r16
    2e5e:	41 4a 4c 03 	xor $r20,$r20,$r19
    2e62:	89 a2       	add45 $r17,$r2
    2e64:	89 b4       	add45 $r17,$r20
    2e66:	41 18 b0 0b 	rotri $r17,$r17,#0xc
    2e6a:	89 b2       	add45 $r17,$r18
    2e6c:	46 22 1e 1c 	sethi $r2,#0x21e1c
    2e70:	41 48 c8 03 	xor $r20,$r17,$r18
    2e74:	50 21 0d e6 	addi $r2,$r2,#0xde6
    2e78:	88 46       	add45 $r2,$r6
    2e7a:	41 4a 4c 02 	and $r20,$r20,$r19
    2e7e:	41 4a 48 03 	xor $r20,$r20,$r18
    2e82:	89 82       	add45 $r16,$r2
    2e84:	89 94       	add45 $r16,$r20
    2e86:	41 08 6c 0b 	rotri $r16,$r16,#0x1b
    2e8a:	89 91       	add45 $r16,$r17
    2e8c:	46 2c 33 70 	sethi $r2,#0xc3370
    2e90:	41 48 44 03 	xor $r20,$r16,$r17
    2e94:	50 21 07 d6 	addi $r2,$r2,#0x7d6
    2e98:	88 5c       	add45 $r2,$fp
    2e9a:	41 4a 48 02 	and $r20,$r20,$r18
    2e9e:	89 e2       	add45 $r19,$r2
    2ea0:	41 4a 44 03 	xor $r20,$r20,$r17
    2ea4:	41 49 d0 00 	add $r20,$r19,$r20
    2ea8:	41 4a 5c 0b 	rotri $r20,$r20,#0x17
    2eac:	41 4a 40 00 	add $r20,$r20,$r16
    2eb0:	46 2f 4d 50 	sethi $r2,#0xf4d50
    2eb4:	41 3a 40 03 	xor $r19,$r20,$r16
    2eb8:	50 21 0d 87 	addi $r2,$r2,#0xd87
    2ebc:	88 4d       	add45 $r2,$r13
    2ebe:	41 39 c4 02 	and $r19,$r19,$r17
    2ec2:	89 c2       	add45 $r18,$r2
    2ec4:	41 39 c0 03 	xor $r19,$r19,$r16
    2ec8:	89 f2       	add45 $r19,$r18
    2eca:	41 39 c8 0b 	rotri $r19,$r19,#0x12
    2ece:	89 f4       	add45 $r19,$r20
    2ed0:	46 24 55 a1 	sethi $r2,#0x455a1
    2ed4:	41 29 d0 03 	xor $r18,$r19,$r20
    2ed8:	50 21 04 ed 	addi $r2,$r2,#0x4ed
    2edc:	88 4a       	add45 $r2,$r10
    2ede:	41 29 40 02 	and $r18,$r18,$r16
    2ee2:	89 a2       	add45 $r17,$r2
    2ee4:	41 29 50 03 	xor $r18,$r18,$r20
    2ee8:	89 d1       	add45 $r18,$r17
    2eea:	41 29 30 0b 	rotri $r18,$r18,#0xc
    2eee:	89 d3       	add45 $r18,$r19
    2ef0:	46 2a 9e 3e 	sethi $r2,#0xa9e3e
    2ef4:	41 19 4c 03 	xor $r17,$r18,$r19
    2ef8:	50 21 09 05 	addi $r2,$r2,#0x905
    2efc:	88 43       	add45 $r2,$r3
    2efe:	41 18 d0 02 	and $r17,$r17,$r20
    2f02:	89 82       	add45 $r16,$r2
    2f04:	41 18 cc 03 	xor $r17,$r17,$r19
    2f08:	89 b0       	add45 $r17,$r16
    2f0a:	41 18 ec 0b 	rotri $r17,$r17,#0x1b
    2f0e:	89 b2       	add45 $r17,$r18
    2f10:	46 2f ce fa 	sethi $r2,#0xfcefa
    2f14:	41 08 c8 03 	xor $r16,$r17,$r18
    2f18:	50 21 03 f8 	addi $r2,$r2,#0x3f8
    2f1c:	88 47       	add45 $r2,$r7
    2f1e:	41 08 4c 02 	and $r16,$r16,$r19
    2f22:	41 41 50 00 	add $r20,$r2,$r20
    2f26:	41 08 48 03 	xor $r16,$r16,$r18
    2f2a:	89 94       	add45 $r16,$r20
    2f2c:	41 08 5c 0b 	rotri $r16,$r16,#0x17
    2f30:	89 91       	add45 $r16,$r17
    2f32:	46 26 76 f0 	sethi $r2,#0x676f0
    2f36:	41 48 44 03 	xor $r20,$r16,$r17
    2f3a:	50 21 02 d9 	addi $r2,$r2,#0x2d9
    2f3e:	88 5e       	add45 $r2,$lp
    2f40:	41 4a 48 02 	and $r20,$r20,$r18
    2f44:	41 4a 44 03 	xor $r20,$r20,$r17
    2f48:	89 e2       	add45 $r19,$r2
    2f4a:	89 f4       	add45 $r19,$r20
    2f4c:	41 39 c8 0b 	rotri $r19,$r19,#0x12
    2f50:	89 f0       	add45 $r19,$r16
    2f52:	46 28 d2 a4 	sethi $r2,#0x8d2a4
    2f56:	41 49 c0 03 	xor $r20,$r19,$r16
    2f5a:	50 21 0c 8a 	addi $r2,$r2,#0xc8a
    2f5e:	88 4e       	add45 $r2,$r14
    2f60:	41 4a 44 02 	and $r20,$r20,$r17
    2f64:	41 4a 40 03 	xor $r20,$r20,$r16
    2f68:	89 c2       	add45 $r18,$r2
    2f6a:	89 d4       	add45 $r18,$r20
    2f6c:	41 29 30 0b 	rotri $r18,$r18,#0xc
    2f70:	89 d3       	add45 $r18,$r19
    2f72:	44 2a 39 42 	movi $r2,#-378558
    2f76:	41 49 4c 03 	xor $r20,$r18,$r19
    2f7a:	88 4f       	add45 $r2,$r15
    2f7c:	89 a2       	add45 $r17,$r2
    2f7e:	40 2a 40 03 	xor $r2,$r20,$r16
    2f82:	89 a2       	add45 $r17,$r2
    2f84:	41 18 f0 0b 	rotri $r17,$r17,#0x1c
    2f88:	40 88 c8 00 	add $r8,$r17,$r18
    2f8c:	47 18 77 1f 	sethi $r17,#0x8771f
    2f90:	51 18 86 81 	addi $r17,$r17,#0x681
    2f94:	89 aa       	add45 $r17,$r10
    2f96:	89 91       	add45 $r16,$r17
    2f98:	41 44 50 03 	xor $r20,$r8,$r20
    2f9c:	41 48 50 00 	add $r20,$r16,$r20
    2fa0:	41 4a 54 0b 	rotri $r20,$r20,#0x15
    2fa4:	47 06 d9 d6 	sethi $r16,#0x6d9d6
    2fa8:	41 4a 20 00 	add $r20,$r20,$r8
    2fac:	51 08 01 22 	addi $r16,$r16,#0x122
    2fb0:	41 1a 20 03 	xor $r17,$r20,$r8
    2fb4:	89 85       	add45 $r16,$r5
    2fb6:	89 f0       	add45 $r19,$r16
    2fb8:	41 08 c8 03 	xor $r16,$r17,$r18
    2fbc:	89 f0       	add45 $r19,$r16
    2fbe:	47 0f de 53 	sethi $r16,#0xfde53
    2fc2:	41 39 c0 0b 	rotri $r19,$r19,#0x10
    2fc6:	51 08 08 0c 	addi $r16,$r16,#0x80c
    2fca:	40 29 d0 00 	add $r2,$r19,$r20
    2fce:	89 9c       	add45 $r16,$fp
    2fd0:	41 11 44 03 	xor $r17,$r2,$r17
    2fd4:	89 92       	add45 $r16,$r18
    2fd6:	89 91       	add45 $r16,$r17
    2fd8:	41 08 24 0b 	rotri $r16,$r16,#0x9
    2fdc:	41 38 08 00 	add $r19,$r16,$r2
    2fe0:	47 0a 4b ee 	sethi $r16,#0xa4bee
    2fe4:	51 08 0a 44 	addi $r16,$r16,#0xa44
    2fe8:	41 19 88 03 	xor $r17,$r19,$r2
    2fec:	89 8b       	add45 $r16,$r11
    2fee:	41 28 d0 03 	xor $r18,$r17,$r20
    2ff2:	89 88       	add45 $r16,$r8
    2ff4:	89 92       	add45 $r16,$r18
    2ff6:	41 08 70 0b 	rotri $r16,$r16,#0x1c
    2ffa:	40 88 4c 00 	add $r8,$r16,$r19
    2ffe:	47 04 bd ec 	sethi $r16,#0x4bdec
    3002:	51 08 0f a9 	addi $r16,$r16,#0xfa9
    3006:	89 84       	add45 $r16,$r4
    3008:	41 14 44 03 	xor $r17,$r8,$r17
    300c:	41 48 50 00 	add $r20,$r16,$r20
    3010:	41 4a 44 00 	add $r20,$r20,$r17
    3014:	41 4a 54 0b 	rotri $r20,$r20,#0x15
    3018:	47 0f 6b b4 	sethi $r16,#0xf6bb4
    301c:	41 2a 20 00 	add $r18,$r20,$r8
    3020:	51 08 0b 60 	addi $r16,$r16,#0xb60
    3024:	41 19 20 03 	xor $r17,$r18,$r8
    3028:	89 9e       	add45 $r16,$lp
    302a:	41 48 cc 03 	xor $r20,$r17,$r19
    302e:	89 82       	add45 $r16,$r2
    3030:	89 94       	add45 $r16,$r20
    3032:	41 08 40 0b 	rotri $r16,$r16,#0x10
    3036:	40 28 48 00 	add $r2,$r16,$r18
    303a:	47 0b eb fb 	sethi $r16,#0xbebfb
    303e:	51 08 0c 70 	addi $r16,$r16,#0xc70
    3042:	89 8c       	add45 $r16,$r12
    3044:	41 11 44 03 	xor $r17,$r2,$r17
    3048:	89 93       	add45 $r16,$r19
    304a:	89 91       	add45 $r16,$r17
    304c:	41 08 24 0b 	rotri $r16,$r16,#0x9
    3050:	41 38 08 00 	add $r19,$r16,$r2
    3054:	47 02 89 b7 	sethi $r16,#0x289b7
    3058:	51 08 0e c6 	addi $r16,$r16,#0xec6
    305c:	41 19 88 03 	xor $r17,$r19,$r2
    3060:	89 83       	add45 $r16,$r3
    3062:	41 48 c8 03 	xor $r20,$r17,$r18
    3066:	89 88       	add45 $r16,$r8
    3068:	89 94       	add45 $r16,$r20
    306a:	47 4e aa 12 	sethi $r20,#0xeaa12
    306e:	41 08 70 0b 	rotri $r16,$r16,#0x1c
    3072:	51 4a 07 fa 	addi $r20,$r20,#0x7fa
    3076:	40 88 4c 00 	add $r8,$r16,$r19
    307a:	41 4c 50 00 	add $r20,$r24,$r20
    307e:	41 14 44 03 	xor $r17,$r8,$r17
    3082:	41 4a 48 00 	add $r20,$r20,$r18
    3086:	41 4a 44 00 	add $r20,$r20,$r17
    308a:	41 4a 54 0b 	rotri $r20,$r20,#0x15
    308e:	47 0d 4e f3 	sethi $r16,#0xd4ef3
    3092:	41 1a 20 00 	add $r17,$r20,$r8
    3096:	51 08 00 85 	addi $r16,$r16,#0x85
    309a:	41 28 a0 03 	xor $r18,$r17,$r8
    309e:	89 8d       	add45 $r16,$r13
    30a0:	41 49 4c 03 	xor $r20,$r18,$r19
    30a4:	89 82       	add45 $r16,$r2
    30a6:	89 94       	add45 $r16,$r20
    30a8:	41 08 40 0b 	rotri $r16,$r16,#0x10
    30ac:	40 28 44 00 	add $r2,$r16,$r17
    30b0:	47 00 48 81 	sethi $r16,#0x4881
    30b4:	51 08 0d 05 	addi $r16,$r16,#0xd05
    30b8:	89 89       	add45 $r16,$r9
    30ba:	41 21 48 03 	xor $r18,$r2,$r18
    30be:	89 93       	add45 $r16,$r19
    30c0:	89 92       	add45 $r16,$r18
    30c2:	41 08 24 0b 	rotri $r16,$r16,#0x9
    30c6:	41 38 08 00 	add $r19,$r16,$r2
    30ca:	47 0d 9d 4d 	sethi $r16,#0xd9d4d
    30ce:	51 08 00 39 	addi $r16,$r16,#0x39
    30d2:	41 29 88 03 	xor $r18,$r19,$r2
    30d6:	89 86       	add45 $r16,$r6
    30d8:	41 49 44 03 	xor $r20,$r18,$r17
    30dc:	89 88       	add45 $r16,$r8
    30de:	89 94       	add45 $r16,$r20
    30e0:	47 4e 6d b9 	sethi $r20,#0xe6db9
    30e4:	41 08 70 0b 	rotri $r16,$r16,#0x1c
    30e8:	51 4a 09 e5 	addi $r20,$r20,#0x9e5
    30ec:	40 88 4c 00 	add $r8,$r16,$r19
    30f0:	41 47 50 00 	add $r20,$r14,$r20
    30f4:	41 24 48 03 	xor $r18,$r8,$r18
    30f8:	41 4a 44 00 	add $r20,$r20,$r17
    30fc:	41 4a 48 00 	add $r20,$r20,$r18
    3100:	41 4a 54 0b 	rotri $r20,$r20,#0x15
    3104:	47 11 fa 27 	sethi $r17,#0x1fa27
    3108:	41 4a 20 00 	add $r20,$r20,$r8
    310c:	51 18 8c f8 	addi $r17,$r17,#0xcf8
    3110:	41 2a 20 03 	xor $r18,$r20,$r8
    3114:	89 b9       	add45 $r17,$r25
    3116:	41 09 4c 03 	xor $r16,$r18,$r19
    311a:	89 a2       	add45 $r17,$r2
    311c:	89 b0       	add45 $r17,$r16
    311e:	47 0c 4a c5 	sethi $r16,#0xc4ac5
    3122:	41 18 c0 0b 	rotri $r17,$r17,#0x10
    3126:	51 08 06 65 	addi $r16,$r16,#0x665
    312a:	89 b4       	add45 $r17,$r20
    312c:	89 87       	add45 $r16,$r7
    312e:	41 28 c8 03 	xor $r18,$r17,$r18
    3132:	89 93       	add45 $r16,$r19
    3134:	89 92       	add45 $r16,$r18
    3136:	41 08 24 0b 	rotri $r16,$r16,#0x9
    313a:	47 3f 42 92 	sethi $r19,#0xf4292
    313e:	89 91       	add45 $r16,$r17
    3140:	41 2a 50 05 	nor $r18,$r20,$r20
    3144:	51 39 82 44 	addi $r19,$r19,#0x244
    3148:	41 28 48 04 	or $r18,$r16,$r18
    314c:	89 f8       	add45 $r19,$r24
    314e:	41 29 44 03 	xor $r18,$r18,$r17
    3152:	89 e8       	add45 $r19,$r8
    3154:	89 f2       	add45 $r19,$r18
    3156:	41 39 e8 0b 	rotri $r19,$r19,#0x1a
    315a:	46 84 32 af 	sethi $r8,#0x432af
    315e:	89 f0       	add45 $r19,$r16
    3160:	41 28 c4 05 	nor $r18,$r17,$r17
    3164:	50 84 0f 97 	addi $r8,$r8,#0xf97
    3168:	89 1e       	add45 $r8,$lp
    316a:	41 29 c8 04 	or $r18,$r19,$r18
    316e:	41 29 40 03 	xor $r18,$r18,$r16
    3172:	41 44 50 00 	add $r20,$r8,$r20
    3176:	41 4a 48 00 	add $r20,$r20,$r18
    317a:	41 4a 58 0b 	rotri $r20,$r20,#0x16
    317e:	46 8a b9 42 	sethi $r8,#0xab942
    3182:	41 4a 4c 00 	add $r20,$r20,$r19
    3186:	41 28 40 05 	nor $r18,$r16,$r16
    318a:	50 84 03 a7 	addi $r8,$r8,#0x3a7
    318e:	89 1c       	add45 $r8,$fp
    3190:	41 2a 48 04 	or $r18,$r20,$r18
    3194:	89 a8       	add45 $r17,$r8
    3196:	41 29 4c 03 	xor $r18,$r18,$r19
    319a:	89 d1       	add45 $r18,$r17
    319c:	41 29 44 0b 	rotri $r18,$r18,#0x11
    31a0:	46 8f c9 3a 	sethi $r8,#0xfc93a
    31a4:	89 d4       	add45 $r18,$r20
    31a6:	41 19 cc 05 	nor $r17,$r19,$r19
    31aa:	50 84 00 39 	addi $r8,$r8,#0x39
    31ae:	89 0f       	add45 $r8,$r15
    31b0:	41 19 44 04 	or $r17,$r18,$r17
    31b4:	89 88       	add45 $r16,$r8
    31b6:	41 18 d0 03 	xor $r17,$r17,$r20
    31ba:	89 b0       	add45 $r17,$r16
    31bc:	41 18 ac 0b 	rotri $r17,$r17,#0xb
    31c0:	46 86 55 b5 	sethi $r8,#0x655b5
    31c4:	89 b2       	add45 $r17,$r18
    31c6:	41 0a 50 05 	nor $r16,$r20,$r20
    31ca:	50 84 09 c3 	addi $r8,$r8,#0x9c3
    31ce:	89 0e       	add45 $r8,$r14
    31d0:	41 08 c0 04 	or $r16,$r17,$r16
    31d4:	89 e8       	add45 $r19,$r8
    31d6:	41 08 48 03 	xor $r16,$r16,$r18
    31da:	89 93       	add45 $r16,$r19
    31dc:	41 08 68 0b 	rotri $r16,$r16,#0x1a
    31e0:	46 88 f0 cc 	sethi $r8,#0x8f0cc
    31e4:	89 91       	add45 $r16,$r17
    31e6:	41 39 48 05 	nor $r19,$r18,$r18
    31ea:	50 84 0c 92 	addi $r8,$r8,#0xc92
    31ee:	89 0d       	add45 $r8,$r13
    31f0:	41 38 4c 04 	or $r19,$r16,$r19
    31f4:	41 44 50 00 	add $r20,$r8,$r20
    31f8:	41 39 c4 03 	xor $r19,$r19,$r17
    31fc:	89 f4       	add45 $r19,$r20
    31fe:	41 39 d8 0b 	rotri $r19,$r19,#0x16
    3202:	46 8f fe ff 	sethi $r8,#0xffeff
    3206:	89 f0       	add45 $r19,$r16
    3208:	41 48 c4 05 	nor $r20,$r17,$r17
    320c:	50 84 04 7d 	addi $r8,$r8,#0x47d
    3210:	89 0c       	add45 $r8,$r12
    3212:	41 49 d0 04 	or $r20,$r19,$r20
    3216:	41 4a 40 03 	xor $r20,$r20,$r16
    321a:	89 c8       	add45 $r18,$r8
    321c:	89 d4       	add45 $r18,$r20
    321e:	41 29 44 0b 	rotri $r18,$r18,#0x11
    3222:	46 88 58 45 	sethi $r8,#0x85845
    3226:	89 d3       	add45 $r18,$r19
    3228:	41 48 40 05 	nor $r20,$r16,$r16
    322c:	50 84 0d d1 	addi $r8,$r8,#0xdd1
    3230:	89 0b       	add45 $r8,$r11
    3232:	41 49 50 04 	or $r20,$r18,$r20
    3236:	41 4a 4c 03 	xor $r20,$r20,$r19
    323a:	89 a8       	add45 $r17,$r8
    323c:	89 b4       	add45 $r17,$r20
    323e:	41 18 ac 0b 	rotri $r17,$r17,#0xb
    3242:	46 86 fa 87 	sethi $r8,#0x6fa87
    3246:	89 b2       	add45 $r17,$r18
    3248:	41 49 cc 05 	nor $r20,$r19,$r19
    324c:	50 84 0e 4f 	addi $r8,$r8,#0xe4f
    3250:	89 0a       	add45 $r8,$r10
    3252:	41 48 d0 04 	or $r20,$r17,$r20
    3256:	41 4a 48 03 	xor $r20,$r20,$r18
    325a:	89 88       	add45 $r16,$r8
    325c:	89 94       	add45 $r16,$r20
    325e:	41 08 68 0b 	rotri $r16,$r16,#0x1a
    3262:	46 8f e2 ce 	sethi $r8,#0xfe2ce
    3266:	89 91       	add45 $r16,$r17
    3268:	41 49 48 05 	nor $r20,$r18,$r18
    326c:	50 84 06 e0 	addi $r8,$r8,#0x6e0
    3270:	89 19       	add45 $r8,$r25
    3272:	41 48 50 04 	or $r20,$r16,$r20
    3276:	41 4a 44 03 	xor $r20,$r20,$r17
    327a:	89 e8       	add45 $r19,$r8
    327c:	89 f4       	add45 $r19,$r20
    327e:	41 39 d8 0b 	rotri $r19,$r19,#0x16
    3282:	47 4a 30 14 	sethi $r20,#0xa3014
    3286:	40 89 c0 00 	add $r8,$r19,$r16
    328a:	51 4a 03 14 	addi $r20,$r20,#0x314
    328e:	41 38 c4 05 	nor $r19,$r17,$r17
    3292:	41 44 d0 00 	add $r20,$r9,$r20
    3296:	41 34 4c 04 	or $r19,$r8,$r19
    329a:	41 39 c0 03 	xor $r19,$r19,$r16
    329e:	89 d4       	add45 $r18,$r20
    32a0:	89 d3       	add45 $r18,$r19
    32a2:	41 29 44 0b 	rotri $r18,$r18,#0x11
    32a6:	47 44 e0 81 	sethi $r20,#0x4e081
    32aa:	41 39 20 00 	add $r19,$r18,$r8
    32ae:	51 4a 01 a1 	addi $r20,$r20,#0x1a1
    32b2:	41 28 40 05 	nor $r18,$r16,$r16
    32b6:	88 74       	add45 $r3,$r20
    32b8:	41 29 c8 04 	or $r18,$r19,$r18
    32bc:	89 a3       	add45 $r17,$r3
    32be:	41 29 20 03 	xor $r18,$r18,$r8
    32c2:	89 b2       	add45 $r17,$r18
    32c4:	41 18 ac 0b 	rotri $r17,$r17,#0xb
    32c8:	46 3f 75 37 	sethi $r3,#0xf7537
    32cc:	41 48 cc 00 	add $r20,$r17,$r19
    32d0:	50 31 8e 82 	addi $r3,$r3,#0xe82
    32d4:	41 14 20 05 	nor $r17,$r8,$r8
    32d8:	88 83       	add45 $r4,$r3
    32da:	41 1a 44 04 	or $r17,$r20,$r17
    32de:	89 84       	add45 $r16,$r4
    32e0:	41 18 cc 03 	xor $r17,$r17,$r19
    32e4:	89 91       	add45 $r16,$r17
    32e6:	41 08 68 0b 	rotri $r16,$r16,#0x1a
    32ea:	46 3b d3 af 	sethi $r3,#0xbd3af
    32ee:	41 28 50 00 	add $r18,$r16,$r20
    32f2:	40 49 cc 05 	nor $r4,$r19,$r19
    32f6:	50 31 82 35 	addi $r3,$r3,#0x235
    32fa:	88 65       	add45 $r3,$r5
    32fc:	40 49 10 04 	or $r4,$r18,$r4
    3300:	40 42 50 03 	xor $r4,$r4,$r20
    3304:	88 68       	add45 $r3,$r8
    3306:	88 64       	add45 $r3,$r4
    3308:	40 31 d8 0b 	rotri $r3,$r3,#0x16
    330c:	46 42 ad 7d 	sethi $r4,#0x2ad7d
    3310:	88 72       	add45 $r3,$r18
    3312:	6a 28 80 01 	fmfsr $r2,$fs17
    3316:	40 5a 50 05 	nor $r5,$r20,$r20
    331a:	50 42 02 bb 	addi $r4,$r4,#0x2bb
    331e:	88 87       	add45 $r4,$r7
    3320:	ff 5f       	or33 $r5,$r3
    3322:	40 52 c8 03 	xor $r5,$r5,$r18
    3326:	50 21 7f c0 	addi $r2,$r2,#-64
    332a:	88 93       	add45 $r4,$r19
    332c:	88 85       	add45 $r4,$r5
    332e:	6a 28 80 09 	fmtsr $r2,$fs17
    3332:	6a 2f 80 01 	fmfsr $r2,$fs31
    3336:	40 42 44 0b 	rotri $r4,$r4,#0x11
    333a:	46 5e b8 6d 	sethi $r5,#0xeb86d
    333e:	88 83       	add45 $r4,$r3
    3340:	88 52       	add45 $r2,$r18
    3342:	41 09 48 05 	nor $r16,$r18,$r18
    3346:	50 52 83 91 	addi $r5,$r5,#0x391
    334a:	88 a6       	add45 $r5,$r6
    334c:	41 02 40 04 	or $r16,$r4,$r16
    3350:	6a 2f 80 09 	fmtsr $r2,$fs31
    3354:	6a 29 00 01 	fmfsr $r2,$fs18
    3358:	88 b4       	add45 $r5,$r20
    335a:	41 08 0c 03 	xor $r16,$r16,$r3
    335e:	88 43       	add45 $r2,$r3
    3360:	88 b0       	add45 $r5,$r16
    3362:	40 52 ac 0b 	rotri $r5,$r5,#0xb
    3366:	6a 29 00 09 	fmtsr $r2,$fs18
    336a:	6a 28 80 01 	fmfsr $r2,$fs17
    336e:	88 a4       	add45 $r5,$r4
    3370:	15 90 00 25 	swi $r25,[$r0+#0x94]
    3374:	41 5a 94 00 	add $r21,$r21,$r5
    3378:	41 6b 10 00 	add $r22,$r22,$r4
    337c:	50 10 80 40 	addi $r1,$r1,#0x40
    3380:	4e 23 fa bb 	bnez $r2,28f6 <body+0x14a>
    3384:	33 f0 00 02 	fssi $fs31,[$r0+#0x8]
    3388:	15 50 00 03 	swi $r21,[$r0+#0xc]
    338c:	15 60 00 04 	swi $r22,[$r0+#0x10]
    3390:	33 20 00 05 	fssi $fs18,[$r0+#0x14]
    3394:	80 01       	mov55 $r0,$r1
    3396:	34 3f 90 02 	fldi.bi $fd3,[$sp],#0x8
    339a:	34 4f 90 02 	fldi.bi $fd4,[$sp],#0x8
    339e:	34 5f 90 02 	fldi.bi $fd5,[$sp],#0x8
    33a2:	34 6f 90 02 	fldi.bi $fd6,[$sp],#0x8
    33a6:	34 7f 90 02 	fldi.bi $fd7,[$sp],#0x8
    33aa:	34 8f 90 02 	fldi.bi $fd8,[$sp],#0x8
    33ae:	34 9f 90 03 	fldi.bi $fd9,[$sp],#0xc
    33b2:	3a 6f ba 84 	lmw.bim $r6,[$sp],$r14,#0xa    ! {$r6~$r14, $fp, $lp}
    33b6:	dd 9e       	ret5 $lp

000033b8 <MD5_Init>:
    33b8:	46 16 74 52 	sethi $r1,#0x67452
    33bc:	50 10 83 01 	addi $r1,$r1,#0x301
    33c0:	a8 42       	swi333 $r1,[$r0+#0x8]
    33c2:	46 1e fc da 	sethi $r1,#0xefcda
    33c6:	50 10 8b 89 	addi $r1,$r1,#0xb89
    33ca:	a8 43       	swi333 $r1,[$r0+#0xc]
    33cc:	46 19 8b ad 	sethi $r1,#0x98bad
    33d0:	50 10 8c fe 	addi $r1,$r1,#0xcfe
    33d4:	a8 44       	swi333 $r1,[$r0+#0x10]
    33d6:	46 11 03 25 	sethi $r1,#0x10325
    33da:	84 40       	movi55 $r2,#0x0
    33dc:	50 10 84 76 	addi $r1,$r1,#0x476
    33e0:	a8 45       	swi333 $r1,[$r0+#0x14]
    33e2:	b6 40       	swi450 $r2,[$r0]
    33e4:	a8 81       	swi333 $r2,[$r0+#0x4]
    33e6:	dd 9e       	ret5 $lp

000033e8 <MD5_Update>:
    33e8:	3a 6f a8 bc 	smw.adm $r6,[$sp],$r10,#0x2    ! {$r6~$r10, $lp}
    33ec:	b4 60       	lwi450 $r3,[$r0]
    33ee:	80 c0       	mov55 $r6,$r0
    33f0:	99 13       	add333 $r4,$r2,$r3
    33f2:	95 23       	slli333 $r4,$r4,#0x3
    33f4:	92 83       	srli45 $r4,#0x3
    33f6:	e2 83       	slt45 $r4,$r3
    33f8:	80 e2       	mov55 $r7,$r2
    33fa:	81 01       	mov55 $r8,$r1
    33fc:	b6 86       	swi450 $r4,[$r6]
    33fe:	e9 2b       	bnezs8 3454 <MD5_Update+0x6c>
    3400:	a0 31       	lwi333 $r0,[$r6+#0x4]
    3402:	92 00       	nop16
    3404:	40 23 f4 09 	srli $r2,$r7,#0x1d
    3408:	88 40       	add45 $r2,$r0
    340a:	96 ef       	fexti33 $r3,#0x5
    340c:	a8 b1       	swi333 $r2,[$r6+#0x4]
    340e:	50 93 00 18 	addi $r9,$r6,#0x18
    3412:	c3 17       	beqz38 $r3,3440 <MD5_Update+0x58>
    3414:	52 a1 80 40 	subri $r10,$r3,#0x40
    3418:	e2 ea       	slt45 $r7,$r10
    341a:	e9 2b       	bnezs8 3470 <MD5_Update+0x88>
    341c:	50 01 80 18 	addi $r0,$r3,#0x18
    3420:	80 28       	mov55 $r1,$r8
    3422:	80 4a       	mov55 $r2,$r10
    3424:	88 06       	add45 $r0,$r6
    3426:	50 93 00 18 	addi $r9,$r6,#0x18
    342a:	49 00 35 91 	jal 9f4c <memcpy>
    342e:	80 06       	mov55 $r0,$r6
    3430:	80 29       	mov55 $r1,$r9
    3432:	44 20 00 40 	movi $r2,#0x40
    3436:	89 0a       	add45 $r8,$r10
    3438:	40 73 a8 01 	sub $r7,$r7,$r10
    343c:	49 ff f9 b8 	jal 27ac <body>
    3440:	5c f3 80 40 	slti $r15,$r7,#0x40
    3444:	e8 0c       	beqzs8 345c <MD5_Update+0x74>
    3446:	80 09       	mov55 $r0,$r9
    3448:	80 28       	mov55 $r1,$r8
    344a:	80 47       	mov55 $r2,$r7
    344c:	3a 6f a8 84 	lmw.bim $r6,[$sp],$r10,#0x2    ! {$r6~$r10, $lp}
    3450:	48 00 35 7e 	j 9f4c <memcpy>
    3454:	a0 b1       	lwi333 $r2,[$r6+#0x4]
    3456:	9c 11       	addi333 $r0,$r2,#0x1
    3458:	d5 d6       	j8 3404 <MD5_Update+0x1c>
    345a:	92 00       	nop16
    345c:	66 23 80 3f 	bitci $r2,$r7,#0x3f
    3460:	80 28       	mov55 $r1,$r8
    3462:	80 06       	mov55 $r0,$r6
    3464:	49 ff f9 a4 	jal 27ac <body>
    3468:	81 00       	mov55 $r8,$r0
    346a:	97 ef       	fexti33 $r7,#0x5
    346c:	d5 ed       	j8 3446 <MD5_Update+0x5e>
    346e:	92 00       	nop16
    3470:	50 01 80 18 	addi $r0,$r3,#0x18
    3474:	88 06       	add45 $r0,$r6
    3476:	d5 e9       	j8 3448 <MD5_Update+0x60>

00003478 <MD5_Final>:
    3478:	3a 6f a0 bc 	smw.adm $r6,[$sp],$r8,#0x2    ! {$r6~$r8, $lp}
    347c:	b4 61       	lwi450 $r3,[$r1]
    347e:	80 c1       	mov55 $r6,$r1
    3480:	96 ef       	fexti33 $r3,#0x5
    3482:	52 21 80 3f 	subri $r2,$r3,#0x3f
    3486:	99 0b       	add333 $r4,$r1,$r3
    3488:	80 e0       	mov55 $r7,$r0
    348a:	e6 48       	slti45 $r2,#0x8
    348c:	44 0f ff 80 	movi $r0,#-128
    3490:	10 02 00 18 	sbi $r0,[$r4+#0x18]
    3494:	50 01 80 19 	addi $r0,$r3,#0x19
    3498:	e9 69       	bnezs8 356a <MD5_Final+0xf2>
    349a:	50 83 00 18 	addi $r8,$r6,#0x18
    349e:	88 06       	add45 $r0,$r6
    34a0:	52 21 80 37 	subri $r2,$r3,#0x37
    34a4:	84 20       	movi55 $r1,#0x0
    34a6:	49 00 35 87 	jal 9fb4 <memset>
    34aa:	b4 06       	lwi450 $r0,[$r6]
    34ac:	a0 f1       	lwi333 $r3,[$r6+#0x4]
    34ae:	94 03       	slli333 $r0,$r0,#0x3
    34b0:	41 30 20 09 	srli $r19,$r0,#0x8
    34b4:	41 20 40 09 	srli $r18,$r0,#0x10
    34b8:	41 10 60 09 	srli $r17,$r0,#0x18
    34bc:	41 01 a0 09 	srli $r16,$r3,#0x8
    34c0:	40 51 c0 09 	srli $r5,$r3,#0x10
    34c4:	40 41 e0 09 	srli $r4,$r3,#0x18
    34c8:	80 28       	mov55 $r1,$r8
    34ca:	b6 06       	swi450 $r0,[$r6]
    34cc:	10 03 00 50 	sbi $r0,[$r6+#0x50]
    34d0:	10 33 00 54 	sbi $r3,[$r6+#0x54]
    34d4:	44 20 00 40 	movi $r2,#0x40
    34d8:	11 33 00 51 	sbi $r19,[$r6+#0x51]
    34dc:	11 23 00 52 	sbi $r18,[$r6+#0x52]
    34e0:	11 13 00 53 	sbi $r17,[$r6+#0x53]
    34e4:	11 03 00 55 	sbi $r16,[$r6+#0x55]
    34e8:	10 53 00 56 	sbi $r5,[$r6+#0x56]
    34ec:	10 43 00 57 	sbi $r4,[$r6+#0x57]
    34f0:	80 06       	mov55 $r0,$r6
    34f2:	49 ff f9 5d 	jal 27ac <body>
    34f6:	a0 32       	lwi333 $r0,[$r6+#0x8]
    34f8:	ae 38       	sbi333 $r0,[$r7+#0x0]
    34fa:	a0 72       	lwi333 $r1,[$r6+#0x8]
    34fc:	80 06       	mov55 $r0,$r6
    34fe:	92 28       	srli45 $r1,#0x8
    3500:	ae 79       	sbi333 $r1,[$r7+#0x1]
    3502:	a4 75       	lhi333 $r1,[$r6+#0xa]
    3504:	ae 7a       	sbi333 $r1,[$r7+#0x2]
    3506:	00 13 00 0b 	lbi $r1,[$r6+#0xb]
    350a:	ae 7b       	sbi333 $r1,[$r7+#0x3]
    350c:	a0 73       	lwi333 $r1,[$r6+#0xc]
    350e:	ae 7c       	sbi333 $r1,[$r7+#0x4]
    3510:	a0 b3       	lwi333 $r2,[$r6+#0xc]
    3512:	84 20       	movi55 $r1,#0x0
    3514:	92 48       	srli45 $r2,#0x8
    3516:	ae bd       	sbi333 $r2,[$r7+#0x5]
    3518:	a4 b7       	lhi333 $r2,[$r6+#0xe]
    351a:	ae be       	sbi333 $r2,[$r7+#0x6]
    351c:	00 23 00 0f 	lbi $r2,[$r6+#0xf]
    3520:	ae bf       	sbi333 $r2,[$r7+#0x7]
    3522:	a0 b4       	lwi333 $r2,[$r6+#0x10]
    3524:	10 23 80 08 	sbi $r2,[$r7+#0x8]
    3528:	a0 f4       	lwi333 $r3,[$r6+#0x10]
    352a:	44 20 00 98 	movi $r2,#0x98
    352e:	92 68       	srli45 $r3,#0x8
    3530:	10 33 80 09 	sbi $r3,[$r7+#0x9]
    3534:	02 33 00 09 	lhi $r3,[$r6+#0x12]
    3538:	10 33 80 0a 	sbi $r3,[$r7+#0xa]
    353c:	00 33 00 13 	lbi $r3,[$r6+#0x13]
    3540:	10 33 80 0b 	sbi $r3,[$r7+#0xb]
    3544:	a0 f5       	lwi333 $r3,[$r6+#0x14]
    3546:	10 33 80 0c 	sbi $r3,[$r7+#0xc]
    354a:	a0 f5       	lwi333 $r3,[$r6+#0x14]
    354c:	92 68       	srli45 $r3,#0x8
    354e:	10 33 80 0d 	sbi $r3,[$r7+#0xd]
    3552:	02 33 00 0b 	lhi $r3,[$r6+#0x16]
    3556:	10 33 80 0e 	sbi $r3,[$r7+#0xe]
    355a:	00 33 00 17 	lbi $r3,[$r6+#0x17]
    355e:	10 33 80 0f 	sbi $r3,[$r7+#0xf]
    3562:	3a 6f a0 84 	lmw.bim $r6,[$sp],$r8,#0x2    ! {$r6~$r8, $lp}
    3566:	48 00 35 27 	j 9fb4 <memset>
    356a:	84 20       	movi55 $r1,#0x0
    356c:	50 83 00 18 	addi $r8,$r6,#0x18
    3570:	40 00 18 00 	add $r0,$r0,$r6
    3574:	49 00 35 20 	jal 9fb4 <memset>
    3578:	44 20 00 40 	movi $r2,#0x40
    357c:	80 06       	mov55 $r0,$r6
    357e:	80 28       	mov55 $r1,$r8
    3580:	49 ff f9 16 	jal 27ac <body>
    3584:	80 08       	mov55 $r0,$r8
    3586:	44 20 00 38 	movi $r2,#0x38
    358a:	48 ff ff 8d 	j 34a4 <MD5_Final+0x2c>
    358e:	92 00       	nop16

00003590 <lfs_alloc_lookahead>:
    3590:	04 30 00 1a 	lwi $r3,[$r0+#0x68]
    3594:	04 20 00 15 	lwi $r2,[$r0+#0x54]
    3598:	04 31 80 08 	lwi $r3,[$r3+#0x20]
    359c:	04 40 00 16 	lwi $r4,[$r0+#0x58]
    35a0:	9a 9a       	sub333 $r2,$r3,$r2
    35a2:	88 22       	add45 $r1,$r2
    35a4:	40 10 8c 77 	divr $r1,$r3,$r1,$r3
    35a8:	e2 64       	slt45 $r3,$r4
    35aa:	e8 0d       	beqzs8 35c4 <lfs_alloc_lookahead+0x34>
    35ac:	04 00 00 19 	lwi $r0,[$r0+#0x64]
    35b0:	40 21 94 09 	srli $r2,$r3,#0x5
    35b4:	38 40 0a 02 	lw $r4,[$r0+($r2<<#0x2)]
    35b8:	84 21       	movi55 $r1,#0x1
    35ba:	40 30 8c 0c 	sll $r3,$r1,$r3
    35be:	fe e7       	or33 $r3,$r4
    35c0:	38 30 0a 0a 	sw $r3,[$r0+($r2<<#0x2)]
    35c4:	84 00       	movi55 $r0,#0x0
    35c6:	dd 9e       	ret5 $lp

000035c8 <lfs_dir_traverse_filter>:
    35c8:	42 20 f0 0b 	btst $r2,$r1,#0x1c
    35cc:	80 a0       	mov55 $r5,$r0
    35ce:	ca 2d       	bnez38 $r2,3628 <lfs_dir_traverse_filter+0x60>
    35d0:	46 27 00 ff 	sethi $r2,#0x700ff
    35d4:	50 31 0c 00 	addi $r3,$r2,#0xc00
    35d8:	b4 85       	lwi450 $r4,[$r5]
    35da:	84 01       	movi55 $r0,#0x1
    35dc:	40 22 04 03 	xor $r2,$r4,$r1
    35e0:	fe 9e       	and33 $r2,$r3
    35e2:	c2 21       	beqz38 $r2,3624 <lfs_dir_traverse_filter+0x5c>
    35e4:	40 22 58 08 	slli $r2,$r4,#0x16
    35e8:	90 56       	srai45 $r2,#0x16
    35ea:	5a 27 ff 1d 	beqc $r2,#-1,3624 <lfs_dir_traverse_filter+0x5c>
    35ee:	46 20 00 ff 	sethi $r2,#0xff
    35f2:	50 21 0c 00 	addi $r2,$r2,#0xc00
    35f6:	46 37 ff ff 	sethi $r3,#0x7ffff
    35fa:	41 02 08 02 	and $r16,$r4,$r2
    35fe:	50 31 8c 00 	addi $r3,$r3,#0xc00
    3602:	47 14 ff 00 	sethi $r17,#0x4ff00
    3606:	fe ce       	and33 $r3,$r1
    3608:	41 18 44 04 	or $r17,$r16,$r17
    360c:	4c 38 80 0c 	beq $r3,$r17,3624 <lfs_dir_traverse_filter+0x5c>
    3610:	40 30 d0 09 	srli $r3,$r1,#0x14
    3614:	54 31 87 00 	andi $r3,$r3,#0x700
    3618:	45 10 04 00 	movi $r17,#0x400
    361c:	84 00       	movi55 $r0,#0x0
    361e:	4c 38 80 0a 	beq $r3,$r17,3632 <lfs_dir_traverse_filter+0x6a>
    3622:	92 00       	nop16
    3624:	dd 9e       	ret5 $lp
    3626:	92 00       	nop16
    3628:	46 27 ff ff 	sethi $r2,#0x7ffff
    362c:	50 31 0c 00 	addi $r3,$r2,#0xc00
    3630:	d5 d4       	j8 35d8 <lfs_dir_traverse_filter+0x10>
    3632:	fe 8e       	and33 $r2,$r1
    3634:	92 4a       	srli45 $r2,#0xa
    3636:	93 8a       	srli45 $r16,#0xa
    3638:	96 91       	zeh33 $r2,$r2
    363a:	41 08 00 13 	zeh $r16,$r16
    363e:	e3 82       	slt45 $r16,$r2
    3640:	e9 f2       	bnezs8 3624 <lfs_dir_traverse_filter+0x5c>
    3642:	92 34       	srli45 $r1,#0x14
    3644:	96 4a       	seb33 $r1,$r1
    3646:	40 10 a8 08 	slli $r1,$r1,#0xa
    364a:	88 24       	add45 $r1,$r4
    364c:	b6 25       	swi450 $r1,[$r5]
    364e:	dd 9e       	ret5 $lp

00003650 <lfs_dir_commit_size>:
    3650:	40 20 d8 08 	slli $r2,$r1,#0x16
    3654:	90 56       	srai45 $r2,#0x16
    3656:	8c 41       	addi45 $r2,#0x1
    3658:	b4 60       	lwi450 $r3,[$r0]
    365a:	e6 41       	slti45 $r2,#0x1
    365c:	88 2f       	add45 $r1,$r15
    365e:	8c 64       	addi45 $r3,#0x4
    3660:	54 10 83 ff 	andi $r1,$r1,#0x3ff
    3664:	88 23       	add45 $r1,$r3
    3666:	b6 20       	swi450 $r1,[$r0]
    3668:	84 00       	movi55 $r0,#0x0
    366a:	dd 9e       	ret5 $lp

0000366c <lfs_fs_size_count>:
    366c:	b4 20       	lwi450 $r1,[$r0]
    366e:	80 40       	mov55 $r2,$r0
    3670:	8c 21       	addi45 $r1,#0x1
    3672:	84 00       	movi55 $r0,#0x0
    3674:	b6 22       	swi450 $r1,[$r2]
    3676:	dd 9e       	ret5 $lp

00003678 <lfs_deinit>:
    3678:	3a 6f 98 bc 	smw.adm $r6,[$sp],$r6,#0x2    ! {$r6, $lp}
    367c:	04 10 00 1a 	lwi $r1,[$r0+#0x68]
    3680:	80 c0       	mov55 $r6,$r0
    3682:	04 00 80 0c 	lwi $r0,[$r1+#0x30]
    3686:	c0 15       	beqz38 $r0,36b0 <lfs_deinit+0x38>
    3688:	04 00 80 0d 	lwi $r0,[$r1+#0x34]
    368c:	4e 02 00 19 	beqz $r0,36be <lfs_deinit+0x46>
    3690:	04 00 80 0e 	lwi $r0,[$r1+#0x38]
    3694:	c0 06       	beqz38 $r0,36a0 <lfs_deinit+0x28>
    3696:	84 00       	movi55 $r0,#0x0
    3698:	3a 6f 98 84 	lmw.bim $r6,[$sp],$r6,#0x2    ! {$r6, $lp}
    369c:	dd 9e       	ret5 $lp
    369e:	92 00       	nop16
    36a0:	04 03 00 19 	lwi $r0,[$r6+#0x64]
    36a4:	49 00 34 2f 	jal 9f02 <free>
    36a8:	84 00       	movi55 $r0,#0x0
    36aa:	3a 6f 98 84 	lmw.bim $r6,[$sp],$r6,#0x2    ! {$r6, $lp}
    36ae:	dd 9e       	ret5 $lp
    36b0:	04 03 00 03 	lwi $r0,[$r6+#0xc]
    36b4:	49 00 34 27 	jal 9f02 <free>
    36b8:	04 13 00 1a 	lwi $r1,[$r6+#0x68]
    36bc:	d5 e6       	j8 3688 <lfs_deinit+0x10>
    36be:	a0 37       	lwi333 $r0,[$r6+#0x1c]
    36c0:	49 00 34 21 	jal 9f02 <free>
    36c4:	04 13 00 1a 	lwi $r1,[$r6+#0x68]
    36c8:	d5 e4       	j8 3690 <lfs_deinit+0x18>
    36ca:	92 00       	nop16
    36cc:	63 6f 6d 70 	*unknown*
    36d0:	6f 6e 65 6e 	*unknown*
    36d4:	74 73 2f 62 	*unknown*
    36d8:	73 70 2f 73 	*unknown*
    36dc:	6f 63 2f 62 	*unknown*
    36e0:	6f 6f 74 2f 	*unknown*
    36e4:	62 6f 6f 74 	*unknown*
    36e8:	6c 6f 61 64 	*unknown*
    36ec:	65 72 2f 6c 	msync ???
    36f0:	69 74 74 6c 	*unknown*
    36f4:	65 66 73 2f 	isps #0x3399
    36f8:	6f 74 61 5f 	*unknown*
    36fc:	6c 66 73 2e 	*unknown*
    3700:	63 00 00 00 	*unknown*
    3704:	6c 66 73 2d 	*unknown*
    3708:	3e 63 66 67 	sbi.gp $r6,[+#0x36667]
    370c:	2d 3e 72 65 	*unknown*
    3710:	61 64 5f 73 	amtbsl2.l $d1,$r4,$r5,$r6,$r7,[$i3],[$i7],$m0,$m7
    3714:	69 7a 65 20 	*unknown*
    3718:	21 3d 20 30 	lbsi $r19,[$p0+#0x2030]
    371c:	00 00 00 00 	lbi $r0,[$r0+#0x0]
    3720:	6c 66 73 2d 	*unknown*
    3724:	3e 63 66 67 	sbi.gp $r6,[+#0x36667]
    3728:	2d 3e 70 72 	*unknown*
    372c:	6f 67 5f 73 	*unknown*
    3730:	69 7a 65 20 	*unknown*
    3734:	21 3d 20 30 	lbsi $r19,[$p0+#0x2030]
    3738:	00 00 00 00 	lbi $r0,[$r0+#0x0]
    373c:	6c 66 73 2d 	*unknown*
    3740:	3e 63 66 67 	sbi.gp $r6,[+#0x36667]
    3744:	2d 3e 63 61 	*unknown*
    3748:	63 68 65 5f 	*unknown*
    374c:	73 69 7a 65 	*unknown*
    3750:	20 21 3d 20 	lbsi $r2,[$r2+#0x3d20]
    3754:	30 00 00 00 	flsi $fs0,[$r0+#0x0]
    3758:	6c 66 73 2d 	*unknown*
    375c:	3e 63 66 67 	sbi.gp $r6,[+#0x36667]
    3760:	2d 3e 63 61 	*unknown*
    3764:	63 68 65 5f 	*unknown*
    3768:	73 69 7a 65 	*unknown*
    376c:	20 25 20 6c 	lbsi $r2,[$r10+#0x206c]
    3770:	66 73 2d 3e 	bitci $r7,$r6,#0x2d3e
    3774:	63 66 67 2d 	*unknown*
    3778:	3e 72 65 61 	sbi.gp $r7,[+#0x26561]
    377c:	64 5f 73 69 	*unknown*
    3780:	7a 65 20 3d 	*unknown*
    3784:	3d 20 30 00 	lhi.gp $r18,[+#0x6000]
    3788:	6c 66 73 2d 	*unknown*
    378c:	3e 63 66 67 	sbi.gp $r6,[+#0x36667]
    3790:	2d 3e 63 61 	*unknown*
    3794:	63 68 65 5f 	*unknown*
    3798:	73 69 7a 65 	*unknown*
    379c:	20 25 20 6c 	lbsi $r2,[$r10+#0x206c]
    37a0:	66 73 2d 3e 	bitci $r7,$r6,#0x2d3e
    37a4:	63 66 67 2d 	*unknown*
    37a8:	3e 70 72 6f 	sbi.gp $r7,[+#0x726f]
    37ac:	67 5f 73 69 	bitci $r21,$lp,#0x7369
    37b0:	7a 65 20 3d 	*unknown*
    37b4:	3d 20 30 00 	lhi.gp $r18,[+#0x6000]
    37b8:	6c 66 73 2d 	*unknown*
    37bc:	3e 63 66 67 	sbi.gp $r6,[+#0x36667]
    37c0:	2d 3e 62 6c 	*unknown*
    37c4:	6f 63 6b 5f 	*unknown*
    37c8:	73 69 7a 65 	*unknown*
    37cc:	20 25 20 6c 	lbsi $r2,[$r10+#0x206c]
    37d0:	66 73 2d 3e 	bitci $r7,$r6,#0x2d3e
    37d4:	63 66 67 2d 	*unknown*
    37d8:	3e 63 61 63 	sbi.gp $r6,[+#0x36163]
    37dc:	68 65 5f 73 	*unknown*
    37e0:	69 7a 65 20 	*unknown*
    37e4:	3d 3d 20 30 	lwi.gp $r19,[+#-229184]
    37e8:	00 00 00 00 	lbi $r0,[$r0+#0x0]
    37ec:	34 2a 6c 66 	cpldi cp3,$cpr2,[$r20+#-3688]
    37f0:	73 5f 6e 70 	*unknown*
    37f4:	77 32 28 30 	*unknown*
    37f8:	78 66 66 66 	*unknown*
    37fc:	66 66 66 66 	bitci $r6,$r12,#0x6666
    3800:	66 20 2f 20 	bitci $r2,$r0,#0x2f20
    3804:	28 6c 66 73 	lbsi.bi $r6,[$r24],#-6541
    3808:	2d 3e 63 66 	*unknown*
    380c:	67 2d 3e 62 	bitci $r18,$p0,#0x3e62
    3810:	6c 6f 63 6b 	*unknown*
    3814:	5f 73 69 7a 	sltsi $r23,$r6,#-5766
    3818:	65 2d 32 2a 	break #0x6991
    381c:	34 29 29 20 	cpldi cp1,$cpr2,[$r18+#-7040]
    3820:	3c 3d 20 6c 	lwi.gp $r3,[+#-228944]
    3824:	66 73 2d 3e 	bitci $r7,$r6,#0x2d3e
    3828:	63 66 67 2d 	*unknown*
    382c:	3e 62 6c 6f 	sbi.gp $r6,[+#0x26c6f]
    3830:	63 6b 5f 73 	*unknown*
    3834:	69 7a 65 00 	*unknown*
    3838:	6c 66 73 2d 	*unknown*
    383c:	3e 63 66 67 	sbi.gp $r6,[+#0x36667]
    3840:	2d 3e 62 6c 	*unknown*
    3844:	6f 63 6b 5f 	*unknown*
    3848:	63 79 63 6c 	*unknown*
    384c:	65 73 20 21 	cctl $r6,l1d_ix_wb
    3850:	3d 20 30 00 	lhi.gp $r18,[+#0x6000]
    3854:	6c 66 73 2d 	*unknown*
    3858:	3e 63 66 67 	sbi.gp $r6,[+#0x36667]
    385c:	2d 3e 6c 6f 	*unknown*
    3860:	6f 6b 61 68 	*unknown*
    3864:	65 61 64 5f 	*unknown*
    3868:	73 69 7a 65 	*unknown*
    386c:	20 3e 20 30 	lbsi $r3,[$fp+#0x2030]
    3870:	00 00 00 00 	lbi $r0,[$r0+#0x0]
    3874:	6c 66 73 2d 	*unknown*
    3878:	3e 63 66 67 	sbi.gp $r6,[+#0x36667]
    387c:	2d 3e 6c 6f 	*unknown*
    3880:	6f 6b 61 68 	*unknown*
    3884:	65 61 64 5f 	*unknown*
    3888:	73 69 7a 65 	*unknown*
    388c:	20 25 20 38 	lbsi $r2,[$r10+#0x2038]
    3890:	20 3d 3d 20 	lbsi $r3,[$p0+#0x3d20]
    3894:	30 20 26 26 	cplwi cp1,$cpr2,[$r0+#0x1898]
    3898:	20 28 75 69 	lbsi $r2,[$r16+#-2711]
    389c:	6e 74 70 74 	*unknown*
    38a0:	72 5f 74 29 	*unknown*
    38a4:	6c 66 73 2d 	*unknown*
    38a8:	3e 63 66 67 	sbi.gp $r6,[+#0x36667]
    38ac:	2d 3e 6c 6f 	*unknown*
    38b0:	6f 6b 61 68 	*unknown*
    38b4:	65 61 64 5f 	*unknown*
    38b8:	62 75 66 66 	*unknown*
    38bc:	65 72 20 25 	trap #0x1101
    38c0:	20 34 20 3d 	lbsi $r3,[$r8+#0x203d]
    38c4:	3d 20 30 00 	lhi.gp $r18,[+#0x6000]
    38c8:	6c 66 73 2d 	*unknown*
    38cc:	3e 63 66 67 	sbi.gp $r6,[+#0x36667]
    38d0:	2d 3e 6e 61 	*unknown*
    38d4:	6d 65 5f 6d 	*unknown*
    38d8:	61 78 20 3c 	*unknown*
    38dc:	3d 20 32 35 	lhi.gp $r18,[+#0x646a]
    38e0:	35 00 00 00 	fldi $fd16,[$r0+#0x0]
    38e4:	6c 66 73 2d 	*unknown*
    38e8:	3e 63 66 67 	sbi.gp $r6,[+#0x36667]
    38ec:	2d 3e 66 69 	*unknown*
    38f0:	6c 65 5f 6d 	*unknown*
    38f4:	61 78 20 3c 	*unknown*
    38f8:	3d 20 32 31 	lhi.gp $r18,[+#0x6462]
    38fc:	34 37 34 38 	cpldi.bi cp1,$cpr3,[$r14],#0x10e0
    3900:	33 36 34 37 	cpswi.bi cp1,$cpr19,[$r12],#0x10dc
    3904:	00 00 00 00 	lbi $r0,[$r0+#0x0]
    3908:	6c 66 73 2d 	*unknown*
    390c:	3e 63 66 67 	sbi.gp $r6,[+#0x36667]
    3910:	2d 3e 61 74 	*unknown*
    3914:	74 72 5f 6d 	*unknown*
    3918:	61 78 20 3c 	*unknown*
    391c:	3d 20 31 30 	lhi.gp $r18,[+#0x6260]
    3920:	32 32 00 00 	fssi $fs3,[$r4+#0x0]
    3924:	65 72 72 20 	*unknown*
    3928:	3c 3d 20 30 	lwi.gp $r3,[+#-229184]
    392c:	00 00 00 00 	lbi $r0,[$r0+#0x0]
    3930:	25 73 3a 25 	*unknown*
    3934:	64 3a 65 72 	*unknown*
    3938:	72 6f 72 3a 	*unknown*
    393c:	20 43 6f 72 	lbsi $r4,[$r6+#-4238]
    3940:	72 75 70 74 	*unknown*
    3944:	65 64 20 64 	*unknown*
    3948:	69 72 20 70 	*unknown*
    394c:	61 69 72 20 	*unknown*
    3950:	61 74 20 7b 	*unknown*
    3954:	30 78 25 6c 	cplwi cp1,$cpr7,[$r16+#0x15b0]
    3958:	78 2c 20 30 	*unknown*
    395c:	78 25 6c 78 	*unknown*
    3960:	7d 25 73 0a 	*unknown*
    3964:	00 00 00 00 	lbi $r0,[$r0+#0x0]
    3968:	6c 66 73 5f 	*unknown*
    396c:	74 61 67 5f 	*unknown*
    3970:	73 69 7a 65 	*unknown*
    3974:	28 6c 66 73 	lbsi.bi $r6,[$r24],#-6541
    3978:	2d 3e 67 73 	*unknown*
    397c:	74 61 74 65 	*unknown*
    3980:	2e 74 61 67 	lbi.gp $r7,[+#-237209]
    3984:	29 20 3e 20 	lbsi.bi $r18,[$r0],#0x3e20
    3988:	30 20 7c 7c 	cplwi.bi cp3,$cpr2,[$r0],#-3600
    398c:	20 6f 72 70 	lbsi $r6,[$lp+#-3472]
    3990:	68 61 6e 73 	*unknown*
    3994:	20 3e 3d 20 	lbsi $r3,[$fp+#0x3d20]
    3998:	30 00 00 00 	flsi $fs0,[$r0+#0x0]
    399c:	70 63 61 63 	*unknown*
    39a0:	68 65 2d 3e 	*unknown*
    39a4:	62 6c 6f 63 	*unknown*
    39a8:	6b 20 3c 20 	cpe1 cp2,#0x480f0
    39ac:	6c 66 73 2d 	*unknown*
    39b0:	3e 63 66 67 	sbi.gp $r6,[+#0x36667]
    39b4:	2d 3e 62 6c 	*unknown*
    39b8:	6f 63 6b 5f 	*unknown*
    39bc:	63 6f 75 6e 	*unknown*
    39c0:	74 00 00 00 	*unknown*
    39c4:	62 6c 6f 63 	*unknown*
    39c8:	6b 20 3d 3d 	*unknown*
    39cc:	20 28 28 6c 	lbsi $r2,[$r16+#0x286c]
    39d0:	66 73 5f 62 	bitci $r7,$r6,#0x5f62
    39d4:	6c 6f 63 6b 	*unknown*
    39d8:	5f 74 29 2d 	sltsi $r23,$r8,#0x292d
    39dc:	32 29 20 7c 	cpswi cp1,$cpr2,[$r18+#0x1f0]
    39e0:	7c 20 62 6c 	*unknown*
    39e4:	6f 63 6b 20 	*unknown*
    39e8:	3c 20 6c 66 	lhi.gp $r2,[+#0xd8cc]
    39ec:	73 2d 3e 63 	*unknown*
    39f0:	66 67 2d 3e 	bitci $r6,$r14,#0x2d3e
    39f4:	62 6c 6f 63 	*unknown*
    39f8:	6b 5f 63 6f 	*unknown*
    39fc:	75 6e 74 00 	*unknown*
    3a00:	6f 66 66 20 	*unknown*
    3a04:	2b 20 73 69 	lhsi.bi $r18,[$r0],#-6446
    3a08:	7a 65 20 3c 	*unknown*
    3a0c:	3d 20 6c 66 	lhi.gp $r18,[+#0xd8cc]
    3a10:	73 2d 3e 63 	*unknown*
    3a14:	66 67 2d 3e 	bitci $r6,$r14,#0x2d3e
    3a18:	62 6c 6f 63 	*unknown*
    3a1c:	6b 5f 73 69 	mtcpd cp2,$r21,#0xf73
    3a20:	7a 65 00 00 	*unknown*
    3a24:	70 63 61 63 	*unknown*
    3a28:	68 65 2d 3e 	*unknown*
    3a2c:	62 6c 6f 63 	*unknown*
    3a30:	6b 20 3d 3d 	*unknown*
    3a34:	20 28 28 6c 	lbsi $r2,[$r16+#0x286c]
    3a38:	66 73 5f 62 	bitci $r7,$r6,#0x5f62
    3a3c:	6c 6f 63 6b 	*unknown*
    3a40:	5f 74 29 2d 	sltsi $r23,$r8,#0x292d
    3a44:	31 29 00 00 	flsi $fs18,[$r18+#0x0]
    3a48:	2f 00 00 00 	lbi.gp $r16,[+#0x0]
    3a4c:	2e 00 00 00 	lbi.gp $r0,[+#0x0]
    3a50:	2e 2e 00 00 	lbsi.gp $r2,[+#-131072]
    3a54:	66 69 6c 65 	bitci $r6,$r18,#0x6c65
    3a58:	2d 3e 66 6c 	*unknown*
    3a5c:	61 67 73 20 	amtbsl2.s $d1,$r14,$fp,[$i0],[$i4],$m0,$m6
    3a60:	26 20 4c 46 	dprefi.w swr,[$r0+#-52968]
    3a64:	53 5f 46 5f 	subri $r21,$lp,#-14753
    3a68:	4f 50 45 4e 	*unknown*
    3a6c:	45 44 00 00 	movi $r20,#0x40000
    3a70:	6c 69 74 74 	*unknown*
    3a74:	6c 65 66 73 	*unknown*
    3a78:	00 00 00 00 	lbi $r0,[$r0+#0x0]
    3a7c:	25 73 3a 25 	*unknown*
    3a80:	64 3a 65 72 	*unknown*
    3a84:	72 6f 72 3a 	*unknown*
    3a88:	20 49 6e 76 	lbsi $r4,[$r18+#-4490]
    3a8c:	61 6c 69 64 	amtbsl2.l $d0,$r12,$r6,$r4,$r5,[$i0],[$i4],$m1,$m6
    3a90:	20 76 65 72 	lbsi $r7,[$r12+#-6798]
    3a94:	73 69 6f 6e 	*unknown*
    3a98:	20 76 25 75 	lbsi $r7,[$r12+#0x2575]
    3a9c:	2e 25 75 25 	lbi.gp $r2,[+#-166619]
    3aa0:	73 0a 00 00 	*unknown*
    3aa4:	25 73 3a 25 	*unknown*
    3aa8:	64 3a 65 72 	*unknown*
    3aac:	72 6f 72 3a 	*unknown*
    3ab0:	20 55 6e 73 	lbsi $r5,[$r10+#-4493]
    3ab4:	75 70 70 6f 	*unknown*
    3ab8:	72 74 65 64 	*unknown*
    3abc:	20 6e 61 6d 	lbsi $r6,[$fp+#-7827]
    3ac0:	65 5f 6d 61 	cctl $lp,l1d_va_fillck
    3ac4:	78 20 28 25 	*unknown*
    3ac8:	6c 75 20 3e 	*unknown*
    3acc:	20 25 6c 75 	lbsi $r2,[$r10+#-5003]
    3ad0:	29 25 73 0a 	lbsi.bi $r18,[$r10],#-3318
    3ad4:	00 00 00 00 	lbi $r0,[$r0+#0x0]
    3ad8:	25 73 3a 25 	*unknown*
    3adc:	64 3a 65 72 	*unknown*
    3ae0:	72 6f 72 3a 	*unknown*
    3ae4:	20 55 6e 73 	lbsi $r5,[$r10+#-4493]
    3ae8:	75 70 70 6f 	*unknown*
    3aec:	72 74 65 64 	*unknown*
    3af0:	20 66 69 6c 	lbsi $r6,[$r12+#-5780]
    3af4:	65 5f 6d 61 	cctl $lp,l1d_va_fillck
    3af8:	78 20 28 25 	*unknown*
    3afc:	6c 75 20 3e 	*unknown*
    3b00:	20 25 6c 75 	lbsi $r2,[$r10+#-5003]
    3b04:	29 25 73 0a 	lbsi.bi $r18,[$r10],#-3318
    3b08:	00 00 00 00 	lbi $r0,[$r0+#0x0]
    3b0c:	25 73 3a 25 	*unknown*
    3b10:	64 3a 65 72 	*unknown*
    3b14:	72 6f 72 3a 	*unknown*
    3b18:	20 55 6e 73 	lbsi $r5,[$r10+#-4493]
    3b1c:	75 70 70 6f 	*unknown*
    3b20:	72 74 65 64 	*unknown*
    3b24:	20 61 74 74 	lbsi $r6,[$r2+#-2956]
    3b28:	72 5f 6d 61 	*unknown*
    3b2c:	78 20 28 25 	*unknown*
    3b30:	6c 75 20 3e 	*unknown*
    3b34:	20 25 6c 75 	lbsi $r2,[$r10+#-5003]
    3b38:	29 25 73 0a 	lbsi.bi $r18,[$r10],#-3318
    3b3c:	00 00 00 00 	lbi $r0,[$r0+#0x0]
    3b40:	25 73 3a 25 	*unknown*
    3b44:	64 3a 64 65 	trap #0x5323
    3b48:	62 75 67 3a 	*unknown*
    3b4c:	20 46 6f 75 	lbsi $r4,[$r12+#-4235]
    3b50:	6e 64 20 70 	*unknown*
    3b54:	65 6e 64 69 	*unknown*
    3b58:	6e 67 20 67 	*unknown*
    3b5c:	73 74 61 74 	*unknown*
    3b60:	65 20 30 78 	*unknown*
    3b64:	25 30 38 6c 	*unknown*
    3b68:	78 25 30 38 	*unknown*
    3b6c:	6c 78 25 30 	*unknown*
    3b70:	38 6c 78 25 	*unknown*
    3b74:	73 0a 00 00 	*unknown*
    3b78:	25 73 3a 25 	*unknown*
    3b7c:	64 3a 65 72 	*unknown*
    3b80:	72 6f 72 3a 	*unknown*
    3b84:	20 4e 6f 20 	lbsi $r4,[$fp+#-4320]
    3b88:	6d 6f 72 65 	*unknown*
    3b8c:	20 66 72 65 	lbsi $r6,[$r12+#-3483]
    3b90:	65 20 73 70 	bpick $r18,$r0,$fp,$p1
    3b94:	61 63 65 20 	amtbsl2.s $d0,$r6,$r25,[$i0],[$i4],$m0,$m6
    3b98:	25 6c 75 25 	*unknown*
    3b9c:	73 0a 00 00 	*unknown*
    3ba0:	25 73 3a 25 	*unknown*
    3ba4:	64 3a 64 65 	trap #0x5323
    3ba8:	62 75 67 3a 	*unknown*
    3bac:	20 42 61 64 	lbsi $r4,[$r4+#-7836]
    3bb0:	20 62 6c 6f 	lbsi $r6,[$r4+#-5009]
    3bb4:	63 6b 20 61 	*unknown*
    3bb8:	74 20 30 78 	*unknown*
    3bbc:	25 6c 78 25 	*unknown*
    3bc0:	73 0a 00 00 	*unknown*
    3bc4:	28 66 69 6c 	lbsi.bi $r6,[$r12],#-5780
    3bc8:	65 2d 3e 66 	teqz $r18,#0x69f3
    3bcc:	6c 61 67 73 	*unknown*
    3bd0:	20 26 20 33 	lbsi $r2,[$r12+#0x2033]
    3bd4:	29 20 21 3d 	lbsi.bi $r18,[$r0],#0x213d
    3bd8:	20 4c 46 53 	lbsi $r4,[$r24+#-14765]
    3bdc:	5f 4f 5f 52 	sltsi $r20,$lp,#-8366
    3be0:	44 4f 4e 4c 	movi $r4,#-45492
    3be4:	59 00 00 00 	ori $r16,$r0,#0x0
    3be8:	28 66 69 6c 	lbsi.bi $r6,[$r12],#-5780
    3bec:	65 2d 3e 66 	teqz $r18,#0x69f3
    3bf0:	6c 61 67 73 	*unknown*
    3bf4:	20 26 20 33 	lbsi $r2,[$r12+#0x2033]
    3bf8:	29 20 21 3d 	lbsi.bi $r18,[$r0],#0x213d
    3bfc:	20 4c 46 53 	lbsi $r4,[$r24+#-14765]
    3c00:	5f 4f 5f 57 	sltsi $r20,$lp,#-8361
    3c04:	52 4f 4e 4c 	subri $r4,$lp,#-12724
    3c08:	59 00 00 00 	ori $r16,$r0,#0x0
    3c0c:	25 73 3a 25 	*unknown*
    3c10:	64 3a 64 65 	trap #0x5323
    3c14:	62 75 67 3a 	*unknown*
    3c18:	20 45 78 70 	lbsi $r4,[$r10+#-1936]
    3c1c:	61 6e 64 69 	*unknown*
    3c20:	6e 67 20 73 	*unknown*
    3c24:	75 70 65 72 	*unknown*
    3c28:	62 6c 6f 63 	*unknown*
    3c2c:	6b 20 61 74 	cpe2 cp3,#0x48185
    3c30:	20 72 65 76 	lbsi $r7,[$r4+#-6794]
    3c34:	20 25 6c 75 	lbsi $r2,[$r10+#-5003]
    3c38:	25 73 0a 00 	*unknown*
    3c3c:	63 6f 6d 6d 	*unknown*
    3c40:	69 74 2e 6f 	*unknown*
    3c44:	66 66 20 25 	bitci $r6,$r12,#0x2025
    3c48:	20 6c 66 73 	lbsi $r6,[$r24+#-6541]
    3c4c:	2d 3e 63 66 	*unknown*
    3c50:	67 2d 3e 70 	bitci $r18,$p0,#0x3e70
    3c54:	72 6f 67 5f 	*unknown*
    3c58:	73 69 7a 65 	*unknown*
    3c5c:	20 3d 3d 20 	lbsi $r3,[$p0+#0x3d20]
    3c60:	30 00 00 00 	flsi $fs0,[$r0+#0x0]
    3c64:	25 73 3a 25 	*unknown*
    3c68:	64 3a 64 65 	trap #0x5323
    3c6c:	62 75 67 3a 	*unknown*
    3c70:	20 46 69 78 	lbsi $r4,[$r12+#-5768]
    3c74:	69 6e 67 20 	*unknown*
    3c78:	6d 6f 76 65 	*unknown*
    3c7c:	20 77 68 69 	lbsi $r7,[$r14+#-6039]
    3c80:	6c 65 20 72 	*unknown*
    3c84:	65 6c 6f 63 	mtsr $r22,795
    3c88:	61 74 69 6e 	amttsl2.l $d0,$r4,$r6,$r4,$r5,[$i2],[$i6],$m3,$m6
    3c8c:	67 20 7b 30 	bitci $r18,$r0,#0x7b30
    3c90:	78 25 6c 78 	*unknown*
    3c94:	2c 20 30 78 	*unknown*
    3c98:	25 6c 78 7d 	*unknown*
    3c9c:	20 30 78 25 	lbsi $r3,[$r0+#-2011]
    3ca0:	78 0a 25 73 	*unknown*
    3ca4:	0a 00 00 00 	lhi.bi $r0,[$r0],#0x0
    3ca8:	25 73 3a 25 	*unknown*
    3cac:	64 3a 64 65 	trap #0x5323
    3cb0:	62 75 67 3a 	*unknown*
    3cb4:	20 52 65 6c 	lbsi $r5,[$r4+#-6804]
    3cb8:	6f 63 61 74 	*unknown*
    3cbc:	69 6e 67 20 	*unknown*
    3cc0:	7b 30 78 25 	*unknown*
    3cc4:	6c 78 2c 20 	*unknown*
    3cc8:	30 78 25 6c 	cplwi cp1,$cpr7,[$r16+#0x15b0]
    3ccc:	78 7d 20 2d 	*unknown*
    3cd0:	3e 20 7b 30 	sbi.gp $r2,[+#0x7b30]
    3cd4:	78 25 6c 78 	*unknown*
    3cd8:	2c 20 30 78 	*unknown*
    3cdc:	25 6c 78 7d 	*unknown*
    3ce0:	25 73 0a 00 	*unknown*
    3ce4:	25 73 3a 25 	*unknown*
    3ce8:	64 3a 77 61 	cctl $r20,l1i_va_fillck
    3cec:	72 6e 3a 20 	*unknown*
    3cf0:	53 75 70 65 	subri $r23,$r10,#-3995
    3cf4:	72 62 6c 6f 	*unknown*
    3cf8:	63 6b 20 30 	*unknown*
    3cfc:	78 25 6c 78 	*unknown*
    3d00:	20 68 61 73 	lbsi $r6,[$r16+#-7821]
    3d04:	20 62 65 63 	lbsi $r6,[$r4+#-6813]
    3d08:	6f 6d 65 20 	*unknown*
    3d0c:	75 6e 77 72 	*unknown*
    3d10:	69 74 61 62 	*unknown*
    3d14:	6c 65 25 73 	*unknown*
    3d18:	0a 00 00 00 	lhi.bi $r0,[$r0],#0x0
    3d1c:	64 69 72 2d 	isync $r6
    3d20:	3e 63 6f 75 	sbi.gp $r6,[+#0x36f75]
    3d24:	6e 74 20 3e 	*unknown*
    3d28:	20 30 00 00 	lbsi $r3,[$r0+#0x0]
    3d2c:	25 73 3a 25 	*unknown*
    3d30:	64 3a 64 65 	trap #0x5323
    3d34:	62 75 67 3a 	*unknown*
    3d38:	20 46 69 78 	lbsi $r4,[$r12+#-5768]
    3d3c:	69 6e 67 20 	*unknown*
    3d40:	6d 6f 76 65 	*unknown*
    3d44:	20 7b 30 78 	lbsi $r7,[$r22+#0x3078]
    3d48:	25 6c 78 2c 	*unknown*
    3d4c:	20 30 78 25 	lbsi $r3,[$r0+#-2011]
    3d50:	6c 78 7d 20 	*unknown*
    3d54:	30 78 25 78 	cplwi cp1,$cpr7,[$r16+#0x15e0]
    3d58:	25 73 0a 00 	*unknown*
    3d5c:	25 73 3a 25 	*unknown*
    3d60:	64 3a 64 65 	trap #0x5323
    3d64:	62 75 67 3a 	*unknown*
    3d68:	20 46 69 78 	lbsi $r4,[$r12+#-5768]
    3d6c:	69 6e 67 20 	*unknown*
    3d70:	6f 72 70 68 	*unknown*
    3d74:	61 6e 20 7b 	*unknown*
    3d78:	30 78 25 6c 	cplwi cp1,$cpr7,[$r16+#0x15b0]
    3d7c:	78 2c 20 30 	*unknown*
    3d80:	78 25 6c 78 	*unknown*
    3d84:	7d 25 73 0a 	*unknown*
    3d88:	00 00 00 00 	lbi $r0,[$r0+#0x0]
    3d8c:	25 73 3a 25 	*unknown*
    3d90:	64 3a 64 65 	trap #0x5323
    3d94:	62 75 67 3a 	*unknown*
    3d98:	20 46 69 78 	lbsi $r4,[$r12+#-5768]
    3d9c:	69 6e 67 20 	*unknown*
    3da0:	68 61 6c 66 	*unknown*
    3da4:	2d 6f 72 70 	*unknown*
    3da8:	68 61 6e 20 	*unknown*
    3dac:	7b 30 78 25 	*unknown*
    3db0:	6c 78 2c 20 	*unknown*
    3db4:	30 78 25 6c 	cplwi cp1,$cpr7,[$r16+#0x15b0]
    3db8:	78 7d 20 2d 	*unknown*
    3dbc:	3e 20 7b 30 	sbi.gp $r2,[+#0x7b30]
    3dc0:	78 25 6c 78 	*unknown*
    3dc4:	2c 20 30 78 	*unknown*
    3dc8:	25 6c 78 7d 	*unknown*
    3dcc:	25 73 0a 00 	*unknown*

00003dd0 <lfs_init>:
    3dd0:	3a 6f a0 bc 	smw.adm $r6,[$sp],$r8,#0x2    ! {$r6~$r8, $lp}
    3dd4:	a0 cd       	lwi333 $r3,[$r1+#0x14]
    3dd6:	80 c0       	mov55 $r6,$r0
    3dd8:	14 10 00 1a 	swi $r1,[$r0+#0x68]
    3ddc:	4e 32 01 1a 	beqz $r3,4010 <lfs_init+0x240>
    3de0:	a1 0e       	lwi333 $r4,[$r1+#0x18]
    3de2:	4e 42 01 47 	beqz $r4,4070 <lfs_init+0x2a0>
    3de6:	04 20 80 0a 	lwi $r2,[$r1+#0x28]
    3dea:	4e 22 01 2b 	beqz $r2,4040 <lfs_init+0x270>
    3dee:	40 01 0c 77 	divr $r0,$r3,$r2,$r3
    3df2:	4e 33 00 eb 	bnez $r3,3fc8 <lfs_init+0x1f8>
    3df6:	40 01 10 97 	divr $r0,$r4,$r2,$r4
    3dfa:	4e 43 00 ff 	bnez $r4,3ff8 <lfs_init+0x228>
    3dfe:	a0 0f       	lwi333 $r0,[$r1+#0x1c]
    3e00:	40 40 08 77 	divr $r4,$r3,$r0,$r2
    3e04:	4e 33 00 ca 	bnez $r3,3f98 <lfs_init+0x1c8>
    3e08:	50 30 7f f8 	addi $r3,$r0,#-8
    3e0c:	84 9f       	movi55 $r4,#-1
    3e0e:	40 32 0c 77 	divr $r3,$r3,$r4,$r3
    3e12:	8e 61       	subi45 $r3,#0x1
    3e14:	42 31 80 07 	clz $r3,$r3
    3e18:	52 31 80 20 	subri $r3,$r3,#0x20
    3e1c:	94 da       	slli333 $r3,$r3,#0x2
    3e1e:	e2 03       	slt45 $r0,$r3
    3e20:	4e f3 00 b0 	bnez $r15,3f80 <lfs_init+0x1b0>
    3e24:	04 00 80 09 	lwi $r0,[$r1+#0x24]
    3e28:	4e 02 00 dc 	beqz $r0,3fe0 <lfs_init+0x210>
    3e2c:	04 00 80 0c 	lwi $r0,[$r1+#0x30]
    3e30:	4e 02 00 82 	beqz $r0,3f34 <lfs_init+0x164>
    3e34:	a8 33       	swi333 $r0,[$r6+#0xc]
    3e36:	92 00       	nop16
    3e38:	04 00 80 0d 	lwi $r0,[$r1+#0x34]
    3e3c:	4e 02 00 71 	beqz $r0,3f1e <lfs_init+0x14e>
    3e40:	14 03 00 07 	swi $r0,[$r6+#0x1c]
    3e44:	44 10 00 ff 	movi $r1,#0xff
    3e48:	a0 33       	lwi333 $r0,[$r6+#0xc]
    3e4a:	49 00 30 b5 	jal 9fb4 <memset>
    3e4e:	84 ff       	movi55 $r7,#-1
    3e50:	04 23 00 1a 	lwi $r2,[$r6+#0x68]
    3e54:	b6 e6       	swi450 $r7,[$r6]
    3e56:	44 10 00 ff 	movi $r1,#0xff
    3e5a:	a0 37       	lwi333 $r0,[$r6+#0x1c]
    3e5c:	04 21 00 0a 	lwi $r2,[$r2+#0x28]
    3e60:	49 00 30 aa 	jal 9fb4 <memset>
    3e64:	04 13 00 1a 	lwi $r1,[$r6+#0x68]
    3e68:	a9 f4       	swi333 $r7,[$r6+#0x10]
    3e6a:	04 00 80 0b 	lwi $r0,[$r1+#0x2c]
    3e6e:	4e 02 00 f5 	beqz $r0,4058 <lfs_init+0x288>
    3e72:	54 20 00 07 	andi $r2,$r0,#0x7
    3e76:	4e 23 00 79 	bnez $r2,3f68 <lfs_init+0x198>
    3e7a:	04 20 80 0e 	lwi $r2,[$r1+#0x38]
    3e7e:	54 31 00 03 	andi $r3,$r2,#0x3
    3e82:	4e 33 00 73 	bnez $r3,3f68 <lfs_init+0x198>
    3e86:	c2 63       	beqz38 $r2,3f4c <lfs_init+0x17c>
    3e88:	14 23 00 19 	swi $r2,[$r6+#0x64]
    3e8c:	04 00 80 0f 	lwi $r0,[$r1+#0x3c]
    3e90:	5c f0 01 00 	slti $r15,$r0,#0x100
    3e94:	4e f2 00 8e 	beqz $r15,3fb0 <lfs_init+0x1e0>
    3e98:	4e 02 00 3a 	beqz $r0,3f0c <lfs_init+0x13c>
    3e9c:	14 03 00 1b 	swi $r0,[$r6+#0x6c]
    3ea0:	04 00 80 10 	lwi $r0,[$r1+#0x40]
    3ea4:	4e 05 00 f2 	bltz $r0,4088 <lfs_init+0x2b8>
    3ea8:	4e 02 00 36 	beqz $r0,3f14 <lfs_init+0x144>
    3eac:	14 03 00 1c 	swi $r0,[$r6+#0x70]
    3eb0:	04 00 80 11 	lwi $r0,[$r1+#0x44]
    3eb4:	5c f0 03 ff 	slti $r15,$r0,#0x3ff
    3eb8:	4e f2 00 b8 	beqz $r15,4028 <lfs_init+0x258>
    3ebc:	c8 03       	bnez38 $r0,3ec2 <lfs_init+0xf2>
    3ebe:	44 00 03 fe 	movi $r0,#0x3fe
    3ec2:	84 7f       	movi55 $r3,#-1
    3ec4:	14 03 00 1d 	swi $r0,[$r6+#0x74]
    3ec8:	84 00       	movi55 $r0,#0x0
    3eca:	14 33 00 08 	swi $r3,[$r6+#0x20]
    3ece:	14 33 00 09 	swi $r3,[$r6+#0x24]
    3ed2:	84 20       	movi55 $r1,#0x0
    3ed4:	84 4c       	movi55 $r2,#0xc
    3ed6:	14 03 00 0a 	swi $r0,[$r6+#0x28]
    3eda:	14 03 00 0b 	swi $r0,[$r6+#0x2c]
    3ede:	50 03 00 3c 	addi $r0,$r6,#0x3c
    3ee2:	49 00 30 69 	jal 9fb4 <memset>
    3ee6:	84 20       	movi55 $r1,#0x0
    3ee8:	44 20 00 0c 	movi $r2,#0xc
    3eec:	50 03 00 30 	addi $r0,$r6,#0x30
    3ef0:	49 00 30 62 	jal 9fb4 <memset>
    3ef4:	50 03 00 48 	addi $r0,$r6,#0x48
    3ef8:	84 20       	movi55 $r1,#0x0
    3efa:	84 4c       	movi55 $r2,#0xc
    3efc:	49 00 30 5c 	jal 9fb4 <memset>
    3f00:	84 00       	movi55 $r0,#0x0
    3f02:	92 00       	nop16
    3f04:	3a 6f a0 84 	lmw.bim $r6,[$sp],$r8,#0x2    ! {$r6~$r8, $lp}
    3f08:	dd 9e       	ret5 $lp
    3f0a:	92 00       	nop16
    3f0c:	44 00 00 ff 	movi $r0,#0xff
    3f10:	48 ff ff c6 	j 3e9c <lfs_init+0xcc>
    3f14:	46 07 ff ff 	sethi $r0,#0x7ffff
    3f18:	50 00 0f ff 	addi $r0,$r0,#0xfff
    3f1c:	d5 c8       	j8 3eac <lfs_init+0xdc>
    3f1e:	80 02       	mov55 $r0,$r2
    3f20:	49 00 2f ea 	jal 9ef4 <malloc>
    3f24:	a8 37       	swi333 $r0,[$r6+#0x1c]
    3f26:	c0 1c       	beqz38 $r0,3f5e <lfs_init+0x18e>
    3f28:	04 03 00 1a 	lwi $r0,[$r6+#0x68]
    3f2c:	04 20 00 0a 	lwi $r2,[$r0+#0x28]
    3f30:	48 ff ff 8a 	j 3e44 <lfs_init+0x74>
    3f34:	80 02       	mov55 $r0,$r2
    3f36:	49 00 2f df 	jal 9ef4 <malloc>
    3f3a:	a8 33       	swi333 $r0,[$r6+#0xc]
    3f3c:	c0 11       	beqz38 $r0,3f5e <lfs_init+0x18e>
    3f3e:	04 13 00 1a 	lwi $r1,[$r6+#0x68]
    3f42:	04 20 80 0a 	lwi $r2,[$r1+#0x28]
    3f46:	48 ff ff 79 	j 3e38 <lfs_init+0x68>
    3f4a:	92 00       	nop16
    3f4c:	49 00 2f d4 	jal 9ef4 <malloc>
    3f50:	14 03 00 19 	swi $r0,[$r6+#0x64]
    3f54:	c0 05       	beqz38 $r0,3f5e <lfs_init+0x18e>
    3f56:	04 13 00 1a 	lwi $r1,[$r6+#0x68]
    3f5a:	48 ff ff 99 	j 3e8c <lfs_init+0xbc>
    3f5e:	80 06       	mov55 $r0,$r6
    3f60:	49 ff fb 8c 	jal 3678 <lfs_deinit>
    3f64:	84 14       	movi55 $r0,#-12
    3f66:	d5 cf       	j8 3f04 <lfs_init+0x134>
    3f68:	44 00 36 cc 	movi $r0,#0x36cc
    3f6c:	44 10 0d c1 	movi $r1,#0xdc1
    3f70:	44 20 7b d4 	movi $r2,#0x7bd4
    3f74:	44 30 38 74 	movi $r3,#0x3874
    3f78:	49 00 2e 4e 	jal 9c14 <__assert_func>
    3f7c:	92 00       	nop16
    3f7e:	92 00       	nop16
    3f80:	44 00 36 cc 	movi $r0,#0x36cc
    3f84:	44 10 0d 99 	movi $r1,#0xd99
    3f88:	44 20 7b d4 	movi $r2,#0x7bd4
    3f8c:	44 30 37 ec 	movi $r3,#0x37ec
    3f90:	49 00 2e 42 	jal 9c14 <__assert_func>
    3f94:	92 00       	nop16
    3f96:	92 00       	nop16
    3f98:	44 00 36 cc 	movi $r0,#0x36cc
    3f9c:	44 10 0d 95 	movi $r1,#0xd95
    3fa0:	44 20 7b d4 	movi $r2,#0x7bd4
    3fa4:	44 30 37 b8 	movi $r3,#0x37b8
    3fa8:	49 00 2e 36 	jal 9c14 <__assert_func>
    3fac:	92 00       	nop16
    3fae:	92 00       	nop16
    3fb0:	44 00 36 cc 	movi $r0,#0x36cc
    3fb4:	44 10 0d cd 	movi $r1,#0xdcd
    3fb8:	44 20 7b d4 	movi $r2,#0x7bd4
    3fbc:	44 30 38 c8 	movi $r3,#0x38c8
    3fc0:	49 00 2e 2a 	jal 9c14 <__assert_func>
    3fc4:	92 00       	nop16
    3fc6:	92 00       	nop16
    3fc8:	44 00 36 cc 	movi $r0,#0x36cc
    3fcc:	44 10 0d 93 	movi $r1,#0xd93
    3fd0:	44 20 7b d4 	movi $r2,#0x7bd4
    3fd4:	44 30 37 58 	movi $r3,#0x3758
    3fd8:	49 00 2e 1e 	jal 9c14 <__assert_func>
    3fdc:	92 00       	nop16
    3fde:	92 00       	nop16
    3fe0:	44 00 36 cc 	movi $r0,#0x36cc
    3fe4:	44 10 0d a1 	movi $r1,#0xda1
    3fe8:	44 20 7b d4 	movi $r2,#0x7bd4
    3fec:	44 30 38 38 	movi $r3,#0x3838
    3ff0:	49 00 2e 12 	jal 9c14 <__assert_func>
    3ff4:	92 00       	nop16
    3ff6:	92 00       	nop16
    3ff8:	44 00 36 cc 	movi $r0,#0x36cc
    3ffc:	44 10 0d 94 	movi $r1,#0xd94
    4000:	44 20 7b d4 	movi $r2,#0x7bd4
    4004:	44 30 37 88 	movi $r3,#0x3788
    4008:	49 00 2e 06 	jal 9c14 <__assert_func>
    400c:	92 00       	nop16
    400e:	92 00       	nop16
    4010:	44 00 36 cc 	movi $r0,#0x36cc
    4014:	44 10 0d 8d 	movi $r1,#0xd8d
    4018:	44 20 7b d4 	movi $r2,#0x7bd4
    401c:	44 30 37 04 	movi $r3,#0x3704
    4020:	49 00 2d fa 	jal 9c14 <__assert_func>
    4024:	92 00       	nop16
    4026:	92 00       	nop16
    4028:	44 00 36 cc 	movi $r0,#0x36cc
    402c:	44 10 0d d9 	movi $r1,#0xdd9
    4030:	44 20 7b d4 	movi $r2,#0x7bd4
    4034:	44 30 39 08 	movi $r3,#0x3908
    4038:	49 00 2d ee 	jal 9c14 <__assert_func>
    403c:	92 00       	nop16
    403e:	92 00       	nop16
    4040:	44 00 36 cc 	movi $r0,#0x36cc
    4044:	44 10 0d 8f 	movi $r1,#0xd8f
    4048:	44 20 7b d4 	movi $r2,#0x7bd4
    404c:	44 30 37 3c 	movi $r3,#0x373c
    4050:	49 00 2d e2 	jal 9c14 <__assert_func>
    4054:	92 00       	nop16
    4056:	92 00       	nop16
    4058:	44 00 36 cc 	movi $r0,#0x36cc
    405c:	44 10 0d bf 	movi $r1,#0xdbf
    4060:	44 20 7b d4 	movi $r2,#0x7bd4
    4064:	44 30 38 54 	movi $r3,#0x3854
    4068:	49 00 2d d6 	jal 9c14 <__assert_func>
    406c:	92 00       	nop16
    406e:	92 00       	nop16
    4070:	44 00 36 cc 	movi $r0,#0x36cc
    4074:	44 10 0d 8e 	movi $r1,#0xd8e
    4078:	44 20 7b d4 	movi $r2,#0x7bd4
    407c:	44 30 37 20 	movi $r3,#0x3720
    4080:	49 00 2d ca 	jal 9c14 <__assert_func>
    4084:	92 00       	nop16
    4086:	92 00       	nop16
    4088:	44 00 36 cc 	movi $r0,#0x36cc
    408c:	44 10 0d d3 	movi $r1,#0xdd3
    4090:	44 20 7b d4 	movi $r2,#0x7bd4
    4094:	44 30 38 e4 	movi $r3,#0x38e4
    4098:	49 00 2d be 	jal 9c14 <__assert_func>
    409c:	92 00       	nop16
    409e:	92 00       	nop16

000040a0 <lfs_bd_read.isra.13>:
    40a0:	3a 6f b8 bc 	smw.adm $r6,[$sp],$r14,#0x2    ! {$r6~$r14, $lp}
    40a4:	b5 80       	lwi450 $r16,[$r0]
    40a6:	81 80       	mov55 $r12,$r0
    40a8:	04 08 00 08 	lwi $r0,[$r16+#0x20]
    40ac:	81 24       	mov55 $r9,$r4
    40ae:	e2 80       	slt45 $r4,$r0
    40b0:	f6 0a       	lwi37.sp $r6,[+#0x28]
    40b2:	04 af 80 0b 	lwi $r10,[$sp+#0x2c]
    40b6:	4e f2 00 9d 	beqz $r15,41f0 <lfs_bd_read.isra.13+0x150>
    40ba:	04 08 00 07 	lwi $r0,[$r16+#0x1c]
    40be:	81 a1       	mov55 $r13,$r1
    40c0:	40 12 a8 00 	add $r1,$r5,$r10
    40c4:	e2 01       	slt45 $r0,$r1
    40c6:	80 e5       	mov55 $r7,$r5
    40c8:	4e f3 00 94 	bnez $r15,41f0 <lfs_bd_read.isra.13+0x150>
    40cc:	81 02       	mov55 $r8,$r2
    40ce:	81 63       	mov55 $r11,$r3
    40d0:	4e a3 00 36 	bnez $r10,413c <lfs_bd_read.isra.13+0x9c>
    40d4:	d5 60       	j8 4194 <lfs_bd_read.isra.13+0xf4>
    40d6:	b4 0c       	lwi450 $r0,[$r12]
    40d8:	04 e0 00 05 	lwi $r14,[$r0+#0x14]
    40dc:	40 33 b8 37 	divr $r3,$r1,$r7,$r14
    40e0:	c9 04       	bnez38 $r1,40e8 <lfs_bd_read.isra.13+0x48>
    40e2:	e3 4e       	slt45 $r10,$r14
    40e4:	4e f2 00 5e 	beqz $r15,41a0 <lfs_bd_read.isra.13+0x100>
    40e8:	04 20 00 08 	lwi $r2,[$r0+#0x20]
    40ec:	e3 22       	slt45 $r9,$r2
    40ee:	4e f2 00 85 	beqz $r15,41f8 <lfs_bd_read.isra.13+0x158>
    40f2:	05 10 00 05 	lwi $r17,[$r0+#0x14]
    40f6:	a1 07       	lwi333 $r4,[$r0+#0x1c]
    40f8:	51 08 ff ff 	addi $r16,$r17,#-1
    40fc:	89 8b       	add45 $r16,$r11
    40fe:	89 87       	add45 $r16,$r7
    4100:	40 28 44 37 	divr $r2,$r1,$r16,$r17
    4104:	41 13 c4 57 	divr $r17,$r2,$r7,$r17
    4108:	8b 81       	sub45 $r16,$r1
    410a:	e2 90       	slt45 $r4,$r16
    410c:	04 50 00 0a 	lwi $r5,[$r0+#0x28]
    4110:	9a ba       	sub333 $r2,$r7,$r2
    4112:	41 02 3c 1b 	cmovn $r16,$r4,$r15
    4116:	8b 82       	sub45 $r16,$r2
    4118:	e2 b0       	slt45 $r5,$r16
    411a:	40 58 3c 1a 	cmovz $r5,$r16,$r15
    411e:	80 85       	mov55 $r4,$r5
    4120:	a1 41       	lwi333 $r5,[$r0+#0x4]
    4122:	80 29       	mov55 $r1,$r9
    4124:	b7 28       	swi450 $r9,[$r8]
    4126:	14 24 00 01 	swi $r2,[$r8+#0x4]
    412a:	14 44 00 02 	swi $r4,[$r8+#0x8]
    412e:	04 34 00 03 	lwi $r3,[$r8+#0xc]
    4132:	dd 25       	jral5 $r5
    4134:	4e 06 00 6e 	bgtz $r0,4210 <lfs_bd_read.isra.13+0x170>
    4138:	c8 30       	bnez38 $r0,4198 <lfs_bd_read.isra.13+0xf8>
    413a:	92 00       	nop16
    413c:	4e d2 00 1c 	beqz $r13,4174 <lfs_bd_read.isra.13+0xd4>
    4140:	b4 0d       	lwi450 $r0,[$r13]
    4142:	80 4a       	mov55 $r2,$r10
    4144:	4c 90 00 1a 	beq $r9,$r0,4178 <lfs_bd_read.isra.13+0xd8>
    4148:	b4 08       	lwi450 $r0,[$r8]
    414a:	4c 90 00 07 	beq $r9,$r0,4158 <lfs_bd_read.isra.13+0xb8>
    414e:	92 00       	nop16
    4150:	e3 4b       	slt45 $r10,$r11
    4152:	e8 c2       	beqzs8 40d6 <lfs_bd_read.isra.13+0x36>
    4154:	b4 0c       	lwi450 $r0,[$r12]
    4156:	d5 c9       	j8 40e8 <lfs_bd_read.isra.13+0x48>
    4158:	04 34 00 01 	lwi $r3,[$r8+#0x4]
    415c:	04 04 00 02 	lwi $r0,[$r8+#0x8]
    4160:	88 03       	add45 $r0,$r3
    4162:	e2 e0       	slt45 $r7,$r0
    4164:	e8 f6       	beqzs8 4150 <lfs_bd_read.isra.13+0xb0>
    4166:	e2 e3       	slt45 $r7,$r3
    4168:	e8 2b       	beqzs8 41be <lfs_bd_read.isra.13+0x11e>
    416a:	8a 67       	sub45 $r3,$r7
    416c:	e2 62       	slt45 $r3,$r2
    416e:	40 21 bc 1b 	cmovn $r2,$r3,$r15
    4172:	d5 ef       	j8 4150 <lfs_bd_read.isra.13+0xb0>
    4174:	80 4a       	mov55 $r2,$r10
    4176:	d5 e9       	j8 4148 <lfs_bd_read.isra.13+0xa8>
    4178:	04 36 80 01 	lwi $r3,[$r13+#0x4]
    417c:	04 06 80 02 	lwi $r0,[$r13+#0x8]
    4180:	88 03       	add45 $r0,$r3
    4182:	e2 e0       	slt45 $r7,$r0
    4184:	e8 f8       	beqzs8 4174 <lfs_bd_read.isra.13+0xd4>
    4186:	e2 e3       	slt45 $r7,$r3
    4188:	e8 29       	beqzs8 41da <lfs_bd_read.isra.13+0x13a>
    418a:	9a 9f       	sub333 $r2,$r3,$r7
    418c:	e3 42       	slt45 $r10,$r2
    418e:	40 25 3c 1b 	cmovn $r2,$r10,$r15
    4192:	d5 db       	j8 4148 <lfs_bd_read.isra.13+0xa8>
    4194:	84 00       	movi55 $r0,#0x0
    4196:	92 00       	nop16
    4198:	3a 6f b8 84 	lmw.bim $r6,[$sp],$r14,#0x2    ! {$r6~$r14, $lp}
    419c:	dd 9e       	ret5 $lp
    419e:	92 00       	nop16
    41a0:	40 11 39 d7 	divr $r1,$r14,$r2,$r14
    41a4:	a1 41       	lwi333 $r5,[$r0+#0x4]
    41a6:	40 e1 38 01 	sub $r14,$r2,$r14
    41aa:	80 29       	mov55 $r1,$r9
    41ac:	80 47       	mov55 $r2,$r7
    41ae:	80 66       	mov55 $r3,$r6
    41b0:	80 8e       	mov55 $r4,$r14
    41b2:	dd 25       	jral5 $r5
    41b4:	c8 f2       	bnez38 $r0,4198 <lfs_bd_read.isra.13+0xf8>
    41b6:	88 ce       	add45 $r6,$r14
    41b8:	88 ee       	add45 $r7,$r14
    41ba:	8b 4e       	sub45 $r10,$r14
    41bc:	d5 8a       	j8 40d0 <lfs_bd_read.isra.13+0x30>
    41be:	8a 07       	sub45 $r0,$r7
    41c0:	e2 02       	slt45 $r0,$r2
    41c2:	04 44 00 03 	lwi $r4,[$r8+#0xc]
    41c6:	40 01 3c 1a 	cmovz $r0,$r2,$r15
    41ca:	9a 7b       	sub333 $r1,$r7,$r3
    41cc:	81 c0       	mov55 $r14,$r0
    41ce:	88 24       	add45 $r1,$r4
    41d0:	80 06       	mov55 $r0,$r6
    41d2:	80 4e       	mov55 $r2,$r14
    41d4:	49 00 2e bc 	jal 9f4c <memcpy>
    41d8:	d5 ef       	j8 41b6 <lfs_bd_read.isra.13+0x116>
    41da:	8a 07       	sub45 $r0,$r7
    41dc:	e3 40       	slt45 $r10,$r0
    41de:	04 26 80 03 	lwi $r2,[$r13+#0xc]
    41e2:	40 05 3c 1b 	cmovn $r0,$r10,$r15
    41e6:	9a 7b       	sub333 $r1,$r7,$r3
    41e8:	81 c0       	mov55 $r14,$r0
    41ea:	88 22       	add45 $r1,$r2
    41ec:	80 06       	mov55 $r0,$r6
    41ee:	d5 f2       	j8 41d2 <lfs_bd_read.isra.13+0x132>
    41f0:	44 0f ff ac 	movi $r0,#-84
    41f4:	d5 d2       	j8 4198 <lfs_bd_read.isra.13+0xf8>
    41f6:	92 00       	nop16
    41f8:	44 00 36 cc 	movi $r0,#0x36cc
    41fc:	44 10 00 5a 	movi $r1,#0x5a
    4200:	44 20 7c bc 	movi $r2,#0x7cbc
    4204:	44 30 39 a4 	movi $r3,#0x39a4
    4208:	49 00 2d 06 	jal 9c14 <__assert_func>
    420c:	92 00       	nop16
    420e:	92 00       	nop16
    4210:	44 00 36 cc 	movi $r0,#0x36cc
    4214:	44 10 00 65 	movi $r1,#0x65
    4218:	44 20 7c bc 	movi $r2,#0x7cbc
    421c:	44 30 39 24 	movi $r3,#0x3924
    4220:	49 00 2c fa 	jal 9c14 <__assert_func>
    4224:	92 00       	nop16
    4226:	92 00       	nop16

00004228 <lfs_fs_parent_match>:
    4228:	3a 6f 98 bc 	smw.adm $r6,[$sp],$r6,#0x2    ! {$r6, $lp}
    422c:	ef f0       	addi10.sp #-16
    422e:	b4 60       	lwi450 $r3,[$r0]
    4230:	80 c0       	mov55 $r6,$r0
    4232:	b0 02       	addri36.sp $r0,#0x8
    4234:	04 41 80 1a 	lwi $r4,[$r3+#0x68]
    4238:	b6 1f       	swi450 $r0,[$sp]
    423a:	84 08       	movi55 $r0,#0x8
    423c:	f0 81       	swi37.sp $r0,[+#0x4]
    423e:	80 a2       	mov55 $r5,$r2
    4240:	50 01 80 68 	addi $r0,$r3,#0x68
    4244:	50 11 80 10 	addi $r1,$r3,#0x10
    4248:	80 43       	mov55 $r2,$r3
    424a:	a0 e7       	lwi333 $r3,[$r4+#0x1c]
    424c:	b4 85       	lwi450 $r4,[$r5]
    424e:	a1 69       	lwi333 $r5,[$r5+#0x4]
    4250:	49 ff ff 28 	jal 40a0 <lfs_bd_read.isra.13>
    4254:	c8 0c       	bnez38 $r0,426c <lfs_fs_parent_match+0x44>
    4256:	f5 02       	lwi37.sp $r5,[+#0x8]
    4258:	a0 f1       	lwi333 $r3,[$r6+#0x4]
    425a:	d3 0d       	beqs38 $r3,4274 <lfs_fs_parent_match+0x4c>
    425c:	f1 03       	lwi37.sp $r1,[+#0xc]
    425e:	a1 32       	lwi333 $r4,[$r6+#0x8]
    4260:	4c 12 00 0a 	beq $r1,$r4,4274 <lfs_fs_parent_match+0x4c>
    4264:	d4 08       	beqs38 $r4,4274 <lfs_fs_parent_match+0x4c>
    4266:	fe 5d       	xor33 $r1,$r3
    4268:	40 00 04 06 	slt $r0,$r0,$r1
    426c:	ec 10       	addi10.sp #0x10
    426e:	3a 6f 98 84 	lmw.bim $r6,[$sp],$r6,#0x2    ! {$r6, $lp}
    4272:	dd 9e       	ret5 $lp
    4274:	84 00       	movi55 $r0,#0x0
    4276:	ec 10       	addi10.sp #0x10
    4278:	3a 6f 98 84 	lmw.bim $r6,[$sp],$r6,#0x2    ! {$r6, $lp}
    427c:	dd 9e       	ret5 $lp
    427e:	92 00       	nop16
    4280:	ff ff       	or33 $r7,$r7
    4282:	ff ff       	or33 $r7,$r7
    4284:	ff ff       	or33 $r7,$r7
    4286:	ff ff       	or33 $r7,$r7

00004288 <lfs_dir_fetchmatch>:
    4288:	05 00 00 1a 	lwi $r16,[$r0+#0x68]
    428c:	b5 c2       	lwi450 $r18,[$r2]
    428e:	05 18 00 08 	lwi $r17,[$r16+#0x20]
    4292:	e3 d1       	slt45 $r18,$r17
    4294:	4e f2 02 94 	beqz $r15,47bc <lfs_dir_fetchmatch+0x534>
    4298:	05 01 00 01 	lwi $r16,[$r2+#0x4]
    429c:	e3 91       	slt45 $r16,$r17
    429e:	4e f2 02 8f 	beqz $r15,47bc <lfs_dir_fetchmatch+0x534>
    42a2:	3a 6f ba bc 	smw.adm $r6,[$sp],$r14,#0xa    ! {$r6~$r14, $fp, $lp}
    42a6:	ef 7c       	addi10.sp #-132
    42a8:	36 3f 80 10 	fsdi $fd3,[$sp+#0x40]
    42ac:	36 4f 80 12 	fsdi $fd4,[$sp+#0x48]
    42b0:	36 5f 80 14 	fsdi $fd5,[$sp+#0x50]
    42b4:	36 6f 80 16 	fsdi $fd6,[$sp+#0x58]
    42b8:	36 7f 80 18 	fsdi $fd7,[$sp+#0x60]
    42bc:	36 8f 80 1a 	fsdi $fd8,[$sp+#0x68]
    42c0:	36 9f 80 1c 	fsdi $fd9,[$sp+#0x70]
    42c4:	36 af 80 1e 	fsdi $fd10,[$sp+#0x78]
    42c8:	80 c0       	mov55 $r6,$r0
    42ca:	51 c0 00 68 	addi $fp,$r0,#0x68
    42ce:	b0 0a       	addri36.sp $r0,#0x28
    42d0:	b6 1f       	swi450 $r0,[$sp]
    42d2:	84 04       	movi55 $r0,#0x4
    42d4:	86 00       	movi55 $r16,#0x0
    42d6:	6a 58 80 09 	fmtsr $r5,$fs17
    42da:	6a 45 80 09 	fmtsr $r4,$fs11
    42de:	6a 35 00 09 	fmtsr $r3,$fs10
    42e2:	81 41       	mov55 $r10,$r1
    42e4:	80 e2       	mov55 $r7,$r2
    42e6:	f0 81       	swi37.sp $r0,[+#0x4]
    42e8:	84 20       	movi55 $r1,#0x0
    42ea:	80 1c       	mov55 $r0,$fp
    42ec:	80 46       	mov55 $r2,$r6
    42ee:	84 64       	movi55 $r3,#0x4
    42f0:	80 92       	mov55 $r4,$r18
    42f2:	84 a0       	movi55 $r5,#0x0
    42f4:	15 0f 80 0a 	swi $r16,[$sp+#0x28]
    42f8:	15 0f 80 0b 	swi $r16,[$sp+#0x2c]
    42fc:	49 ff fe d2 	jal 40a0 <lfs_bd_read.isra.13>
    4300:	4e 02 00 06 	beqz $r0,430c <lfs_dir_fetchmatch+0x84>
    4304:	5a 07 ac 04 	beqc $r0,#-84,430c <lfs_dir_fetchmatch+0x84>
    4308:	48 00 01 84 	j 4610 <lfs_dir_fetchmatch+0x388>
    430c:	b0 0b       	addri36.sp $r0,#0x2c
    430e:	b6 1f       	swi450 $r0,[$sp]
    4310:	84 04       	movi55 $r0,#0x4
    4312:	f0 81       	swi37.sp $r0,[+#0x4]
    4314:	84 20       	movi55 $r1,#0x0
    4316:	80 1c       	mov55 $r0,$fp
    4318:	80 46       	mov55 $r2,$r6
    431a:	84 64       	movi55 $r3,#0x4
    431c:	a1 39       	lwi333 $r4,[$r7+#0x4]
    431e:	84 a0       	movi55 $r5,#0x0
    4320:	49 ff fe c0 	jal 40a0 <lfs_bd_read.isra.13>
    4324:	f1 0b       	lwi37.sp $r1,[+#0x2c]
    4326:	4e 03 01 e4 	bnez $r0,46ee <lfs_dir_fetchmatch+0x466>
    432a:	f2 0a       	lwi37.sp $r2,[+#0x28]
    432c:	8a 22       	sub45 $r1,$r2
    432e:	e0 01       	slts45 $r0,$r1
    4330:	38 03 be 02 	lw $r0,[$r7+($r15<<#0x2)]
    4334:	b6 0a       	swi450 $r0,[$r10]
    4336:	56 07 80 01 	xori $r0,$r15,#0x1
    433a:	38 23 82 02 	lw $r2,[$r7+($r0<<#0x2)]
    433e:	6a 09 00 09 	fmtsr $r0,$fs18
    4342:	b0 0a       	addri36.sp $r0,#0x28
    4344:	38 00 3e 02 	lw $r0,[$r0+($r15<<#0x2)]
    4348:	14 05 00 02 	swi $r0,[$r10+#0x8]
    434c:	84 00       	movi55 $r0,#0x0
    434e:	14 05 00 03 	swi $r0,[$r10+#0xc]
    4352:	50 05 00 08 	addi $r0,$r10,#0x8
    4356:	6a 0a 00 09 	fmtsr $r0,$fs20
    435a:	84 02       	movi55 $r0,#0x2
    435c:	6a 09 80 09 	fmtsr $r0,$fs19
    4360:	84 1f       	movi55 $r0,#-1
    4362:	6a 03 00 09 	fmtsr $r0,$fs6
    4366:	b0 0c       	addri36.sp $r0,#0x30
    4368:	6a 07 00 09 	fmtsr $r0,$fs14
    436c:	44 00 42 80 	movi $r0,#0x4280
    4370:	6a 07 80 09 	fmtsr $r0,$fs15
    4374:	46 07 00 00 	sethi $r0,#0x70000
    4378:	6a 04 80 09 	fmtsr $r0,$fs9
    437c:	46 00 ff 00 	sethi $r0,#0xff00
    4380:	6a 0a 80 09 	fmtsr $r0,$fs21
    4384:	46 07 ff ff 	sethi $r0,#0x7ffff
    4388:	50 00 0c 00 	addi $r0,$r0,#0xc00
    438c:	6a 08 00 09 	fmtsr $r0,$fs16
    4390:	46 00 00 ff 	sethi $r0,#0xff
    4394:	50 00 0c 00 	addi $r0,$r0,#0xc00
    4398:	6a 03 80 09 	fmtsr $r0,$fs7
    439c:	14 25 00 01 	swi $r2,[$r10+#0x4]
    43a0:	50 bf 80 20 	addi $r11,$sp,#0x20
    43a4:	6a 07 80 01 	fmfsr $r0,$fs15
    43a8:	6a 37 00 01 	fmfsr $r3,$fs14
    43ac:	6a 1a 00 01 	fmfsr $r1,$fs20
    43b0:	3b 00 44 00 	lmw.bi $r16,[$r0],$r17,#0x0    ! {$r16~$r17}
    43b4:	84 44       	movi55 $r2,#0x4
    43b6:	84 1f       	movi55 $r0,#-1
    43b8:	3b 01 c4 20 	smw.bi $r16,[$r3],$r17,#0x0    ! {$r16~$r17}
    43bc:	49 00 1c 86 	jal 7cc8 <lfs_crc>
    43c0:	80 e0       	mov55 $r7,$r0
    43c2:	6a d3 18 c0 	fcpyss $fs13,$fs6,$fs6
    43c6:	84 00       	movi55 $r0,#0x0
    43c8:	f0 87       	swi37.sp $r0,[+#0x1c]
    43ca:	f0 86       	swi37.sp $r0,[+#0x18]
    43cc:	85 bf       	movi55 $r13,#-1
    43ce:	85 20       	movi55 $r9,#0x0
    43d0:	40 06 d8 08 	slli $r0,$r13,#0x16
    43d4:	90 16       	srai45 $r0,#0x16
    43d6:	8c 01       	addi45 $r0,#0x1
    43d8:	e6 01       	slti45 $r0,#0x1
    43da:	40 f7 b4 00 	add $r15,$r15,$r13
    43de:	54 07 83 ff 	andi $r0,$r15,#0x3ff
    43e2:	04 33 00 1a 	lwi $r3,[$r6+#0x68]
    43e6:	84 24       	movi55 $r1,#0x4
    43e8:	8c 04       	addi45 $r0,#0x4
    43ea:	f1 81       	swi37.sp $r1,[+#0x4]
    43ec:	b7 7f       	swi450 $r11,[$sp]
    43ee:	89 20       	add45 $r9,$r0
    43f0:	6a 14 00 09 	fmtsr $r1,$fs8
    43f4:	80 1c       	mov55 $r0,$fp
    43f6:	84 20       	movi55 $r1,#0x0
    43f8:	80 46       	mov55 $r2,$r6
    43fa:	a0 df       	lwi333 $r3,[$r3+#0x1c]
    43fc:	b4 8a       	lwi450 $r4,[$r10]
    43fe:	80 a9       	mov55 $r5,$r9
    4400:	49 ff fe 50 	jal 40a0 <lfs_bd_read.isra.13>
    4404:	81 00       	mov55 $r8,$r0
    4406:	4e 03 01 c1 	bnez $r0,4788 <lfs_dir_fetchmatch+0x500>
    440a:	80 07       	mov55 $r0,$r7
    440c:	80 2b       	mov55 $r1,$r11
    440e:	84 44       	movi55 $r2,#0x4
    4410:	49 00 1c 5c 	jal 7cc8 <lfs_crc>
    4414:	80 e0       	mov55 $r7,$r0
    4416:	f0 08       	lwi37.sp $r0,[+#0x20]
    4418:	40 00 00 14 	wsbh $r0,$r0
    441c:	40 00 40 0b 	rotri $r0,$r0,#0x10
    4420:	40 c0 34 03 	xor $r12,$r0,$r13
    4424:	14 cf 80 08 	swi $r12,[$sp+#0x20]
    4428:	4e c5 01 b6 	bltz $r12,4794 <lfs_dir_fetchmatch+0x50c>
    442c:	40 06 58 08 	slli $r0,$r12,#0x16
    4430:	90 16       	srai45 $r0,#0x16
    4432:	8c 01       	addi45 $r0,#0x1
    4434:	e6 01       	slti45 $r0,#0x1
    4436:	04 13 00 1a 	lwi $r1,[$r6+#0x68]
    443a:	40 f7 b0 00 	add $r15,$r15,$r12
    443e:	54 07 83 ff 	andi $r0,$r15,#0x3ff
    4442:	a0 cf       	lwi333 $r3,[$r1+#0x1c]
    4444:	8c 04       	addi45 $r0,#0x4
    4446:	40 10 24 00 	add $r1,$r0,$r9
    444a:	e2 61       	slt45 $r3,$r1
    444c:	4e f3 01 98 	bnez $r15,477c <lfs_dir_fetchmatch+0x4f4>
    4450:	6a 14 80 01 	fmfsr $r1,$fs9
    4454:	44 20 05 00 	movi $r2,#0x500
    4458:	40 56 04 02 	and $r5,$r12,$r1
    445c:	92 b4       	srli45 $r5,#0x14
    445e:	4c 51 00 99 	beq $r5,$r2,4590 <lfs_dir_fetchmatch+0x308>
    4462:	5a 08 04 05 	bnec $r0,#0x4,446c <lfs_dir_fetchmatch+0x1e4>
    4466:	48 00 01 4a 	j 46fa <lfs_dir_fetchmatch+0x472>
    446a:	92 00       	nop16
    446c:	85 c4       	movi55 $r14,#0x4
    446e:	50 8f 80 24 	addi $r8,$sp,#0x24
    4472:	85 a1       	movi55 $r13,#0x1
    4474:	d5 17       	j8 44a2 <lfs_dir_fetchmatch+0x21a>
    4476:	92 00       	nop16
    4478:	49 00 1c 28 	jal 7cc8 <lfs_crc>
    447c:	f5 08       	lwi37.sp $r5,[+#0x20]
    447e:	80 e0       	mov55 $r7,$r0
    4480:	40 02 d8 08 	slli $r0,$r5,#0x16
    4484:	90 16       	srai45 $r0,#0x16
    4486:	8c 01       	addi45 $r0,#0x1
    4488:	5c 00 00 01 	slti $r0,$r0,#0x1
    448c:	88 05       	add45 $r0,$r5
    448e:	54 00 03 ff 	andi $r0,$r0,#0x3ff
    4492:	8c 04       	addi45 $r0,#0x4
    4494:	40 07 00 06 	slt $r0,$r14,$r0
    4498:	4e 02 00 76 	beqz $r0,4584 <lfs_dir_fetchmatch+0x2fc>
    449c:	04 03 00 1a 	lwi $r0,[$r6+#0x68]
    44a0:	a0 c7       	lwi333 $r3,[$r0+#0x1c]
    44a2:	b4 8a       	lwi450 $r4,[$r10]
    44a4:	40 57 24 00 	add $r5,$r14,$r9
    44a8:	80 46       	mov55 $r2,$r6
    44aa:	84 20       	movi55 $r1,#0x0
    44ac:	b7 1f       	swi450 $r8,[$sp]
    44ae:	14 df 80 01 	swi $r13,[$sp+#0x4]
    44b2:	80 1c       	mov55 $r0,$fp
    44b4:	49 ff fd f6 	jal 40a0 <lfs_bd_read.isra.13>
    44b8:	80 60       	mov55 $r3,$r0
    44ba:	50 e7 00 01 	addi $r14,$r14,#0x1
    44be:	80 28       	mov55 $r1,$r8
    44c0:	84 41       	movi55 $r2,#0x1
    44c2:	80 07       	mov55 $r0,$r7
    44c4:	c3 da       	beqz38 $r3,4478 <lfs_dir_fetchmatch+0x1f0>
    44c6:	5a 37 ac 05 	beqc $r3,#-84,44d0 <lfs_dir_fetchmatch+0x248>
    44ca:	48 00 01 75 	j 47b4 <lfs_dir_fetchmatch+0x52c>
    44ce:	92 00       	nop16
    44d0:	6a 04 80 01 	fmfsr $r0,$fs9
    44d4:	05 0f 80 08 	lwi $r16,[$sp+#0x20]
    44d8:	40 58 00 02 	and $r5,$r16,$r0
    44dc:	84 00       	movi55 $r0,#0x0
    44de:	10 05 00 16 	sbi $r0,[$r10+#0x16]
    44e2:	92 b4       	srli45 $r5,#0x14
    44e4:	97 69       	zeh33 $r5,$r5
    44e6:	cd 2f       	bnez38 $r5,4544 <lfs_dir_fetchmatch+0x2bc>
    44e8:	6a 03 80 01 	fmfsr $r0,$fs7
    44ec:	f1 06       	lwi37.sp $r1,[+#0x18]
    44ee:	40 08 00 02 	and $r0,$r16,$r0
    44f2:	92 0a       	srli45 $r0,#0xa
    44f4:	96 01       	zeh33 $r0,$r0
    44f6:	e2 01       	slt45 $r0,$r1
    44f8:	e9 04       	bnezs8 4500 <lfs_dir_fetchmatch+0x278>
    44fa:	8c 01       	addi45 $r0,#0x1
    44fc:	96 01       	zeh33 $r0,$r0
    44fe:	f0 86       	swi37.sp $r0,[+#0x18]
    4500:	6a 05 80 01 	fmfsr $r0,$fs11
    4504:	40 88 00 03 	xor $r8,$r16,$r0
    4508:	6a 05 00 01 	fmfsr $r0,$fs10
    450c:	40 84 00 02 	and $r8,$r8,$r0
    4510:	4e 82 00 06 	beqz $r8,451c <lfs_dir_fetchmatch+0x294>
    4514:	81 ac       	mov55 $r13,$r12
    4516:	48 ff ff 5d 	j 43d0 <lfs_dir_fetchmatch+0x148>
    451a:	92 00       	nop16
    451c:	50 34 80 04 	addi $r3,$r9,#0x4
    4520:	b0 8e       	addri36.sp $r2,#0x38
    4522:	a8 d1       	swi333 $r3,[$r2+#0x4]
    4524:	f3 2c       	lwi37.sp $r3,[+#0xb0]
    4526:	b4 8a       	lwi450 $r4,[$r10]
    4528:	f0 2d       	lwi37.sp $r0,[+#0xb4]
    452a:	80 30       	mov55 $r1,$r16
    452c:	f4 8e       	swi37.sp $r4,[+#0x38]
    452e:	dd 23       	jral5 $r3
    4530:	4e 05 01 22 	bltz $r0,4774 <lfs_dir_fetchmatch+0x4ec>
    4534:	4e 03 00 82 	bnez $r0,4638 <lfs_dir_fetchmatch+0x3b0>
    4538:	30 df 80 08 	flsi $fs13,[$sp+#0x20]
    453c:	81 ac       	mov55 $r13,$r12
    453e:	48 ff ff 49 	j 43d0 <lfs_dir_fetchmatch+0x148>
    4542:	92 00       	nop16
    4544:	44 00 04 00 	movi $r0,#0x400
    4548:	4c 50 00 9a 	beq $r5,$r0,467c <lfs_dir_fetchmatch+0x3f4>
    454c:	44 00 06 00 	movi $r0,#0x600
    4550:	d8 d8       	bnes38 $r0,4500 <lfs_dir_fetchmatch+0x278>
    4552:	04 33 00 1a 	lwi $r3,[$r6+#0x68]
    4556:	84 08       	movi55 $r0,#0x8
    4558:	f0 81       	swi37.sp $r0,[+#0x4]
    455a:	32 ef 80 00 	fssi $fs14,[$sp+#0x0]
    455e:	43 08 50 0b 	btst $r16,$r16,#0x14
    4562:	80 1c       	mov55 $r0,$fp
    4564:	84 20       	movi55 $r1,#0x0
    4566:	80 46       	mov55 $r2,$r6
    4568:	a0 df       	lwi333 $r3,[$r3+#0x1c]
    456a:	b4 8a       	lwi450 $r4,[$r10]
    456c:	50 54 80 04 	addi $r5,$r9,#0x4
    4570:	15 0f 80 07 	swi $r16,[$sp+#0x1c]
    4574:	49 ff fd 96 	jal 40a0 <lfs_bd_read.isra.13>
    4578:	5a 07 ac 1f 	beqc $r0,#-84,45b6 <lfs_dir_fetchmatch+0x32e>
    457c:	05 0f 80 08 	lwi $r16,[$sp+#0x20]
    4580:	d5 c0       	j8 4500 <lfs_dir_fetchmatch+0x278>
    4582:	92 00       	nop16
    4584:	6a 04 80 01 	fmfsr $r0,$fs9
    4588:	82 05       	mov55 $r16,$r5
    458a:	ff 46       	and33 $r5,$r0
    458c:	92 b4       	srli45 $r5,#0x14
    458e:	d5 ab       	j8 44e4 <lfs_dir_fetchmatch+0x25c>
    4590:	50 8f 80 24 	addi $r8,$sp,#0x24
    4594:	b7 1f       	swi450 $r8,[$sp]
    4596:	32 8f 80 01 	fssi $fs8,[$sp+#0x4]
    459a:	80 1c       	mov55 $r0,$fp
    459c:	84 20       	movi55 $r1,#0x0
    459e:	80 46       	mov55 $r2,$r6
    45a0:	04 45 00 00 	lwi $r4,[$r10+#0x0]
    45a4:	50 54 80 04 	addi $r5,$r9,#0x4
    45a8:	49 ff fd 7c 	jal 40a0 <lfs_bd_read.isra.13>
    45ac:	4e 03 01 16 	bnez $r0,47d8 <lfs_dir_fetchmatch+0x550>
    45b0:	f0 09       	lwi37.sp $r0,[+#0x24]
    45b2:	4c 70 00 a7 	beq $r7,$r0,4700 <lfs_dir_fetchmatch+0x478>
    45b6:	84 00       	movi55 $r0,#0x0
    45b8:	10 05 00 16 	sbi $r0,[$r10+#0x16]
    45bc:	04 05 00 03 	lwi $r0,[$r10+#0xc]
    45c0:	4e 03 01 12 	bnez $r0,47e4 <lfs_dir_fetchmatch+0x55c>
    45c4:	6a 39 00 01 	fmfsr $r3,$fs18
    45c8:	b0 8a       	addri36.sp $r2,#0x28
    45ca:	38 21 0e 02 	lw $r2,[$r2+($r3<<#0x2)]
    45ce:	14 25 00 02 	swi $r2,[$r10+#0x8]
    45d2:	6a 29 80 01 	fmfsr $r2,$fs19
    45d6:	b4 0a       	lwi450 $r0,[$r10]
    45d8:	04 15 00 01 	lwi $r1,[$r10+#0x4]
    45dc:	b6 2a       	swi450 $r1,[$r10]
    45de:	14 05 00 01 	swi $r0,[$r10+#0x4]
    45e2:	5a 20 01 05 	beqc $r2,#0x1,45ec <lfs_dir_fetchmatch+0x364>
    45e6:	48 00 00 79 	j 46d8 <lfs_dir_fetchmatch+0x450>
    45ea:	92 00       	nop16
    45ec:	44 20 36 cc 	movi $r2,#0x36cc
    45f0:	b6 5f       	swi450 $r2,[$sp]
    45f2:	f0 83       	swi37.sp $r0,[+#0xc]
    45f4:	44 20 03 e6 	movi $r2,#0x3e6
    45f8:	44 00 01 38 	movi $r0,#0x138
    45fc:	f0 84       	swi37.sp $r0,[+#0x10]
    45fe:	f2 81       	swi37.sp $r2,[+#0x4]
    4600:	14 1f 80 02 	swi $r1,[$sp+#0x8]
    4604:	44 00 39 30 	movi $r0,#0x3930
    4608:	49 ff ef 18 	jal 2438 <printf>
    460c:	44 0f ff ac 	movi $r0,#-84
    4610:	ec 40       	addi10.sp #0x40
    4612:	34 3f 90 02 	fldi.bi $fd3,[$sp],#0x8
    4616:	34 4f 90 02 	fldi.bi $fd4,[$sp],#0x8
    461a:	34 5f 90 02 	fldi.bi $fd5,[$sp],#0x8
    461e:	34 6f 90 02 	fldi.bi $fd6,[$sp],#0x8
    4622:	34 7f 90 02 	fldi.bi $fd7,[$sp],#0x8
    4626:	34 8f 90 02 	fldi.bi $fd8,[$sp],#0x8
    462a:	34 9f 90 02 	fldi.bi $fd9,[$sp],#0x8
    462e:	34 af 90 03 	fldi.bi $fd10,[$sp],#0xc
    4632:	3a 6f ba 84 	lmw.bim $r6,[$sp],$r14,#0xa    ! {$r6~$r14, $fp, $lp}
    4636:	dd 9e       	ret5 $lp
    4638:	f2 08       	lwi37.sp $r2,[+#0x20]
    463a:	6a 16 80 01 	fmfsr $r1,$fs13
    463e:	6a 38 00 01 	fmfsr $r3,$fs16
    4642:	fe 55       	xor33 $r1,$r2
    4644:	fe 5e       	and33 $r1,$r3
    4646:	c1 4e       	beqz38 $r1,46e2 <lfs_dir_fetchmatch+0x45a>
    4648:	5a 00 02 04 	beqc $r0,#0x2,4650 <lfs_dir_fetchmatch+0x3c8>
    464c:	48 ff ff 64 	j 4514 <lfs_dir_fetchmatch+0x28c>
    4650:	6a 06 80 01 	fmfsr $r0,$fs13
    4654:	6a 13 80 01 	fmfsr $r1,$fs7
    4658:	81 ac       	mov55 $r13,$r12
    465a:	fe 0e       	and33 $r0,$r1
    465c:	fe 56       	and33 $r1,$r2
    465e:	92 2a       	srli45 $r1,#0xa
    4660:	92 0a       	srli45 $r0,#0xa
    4662:	96 49       	zeh33 $r1,$r1
    4664:	96 01       	zeh33 $r0,$r0
    4666:	e2 01       	slt45 $r0,$r1
    4668:	6a 16 80 01 	fmfsr $r1,$fs13
    466c:	42 21 7c 08 	bset $r2,$r2,#0x1f
    4670:	40 11 3c 1a 	cmovz $r1,$r2,$r15
    4674:	6a 16 80 09 	fmtsr $r1,$fs13
    4678:	48 ff fe ac 	j 43d0 <lfs_dir_fetchmatch+0x148>
    467c:	6a 0a 80 01 	fmfsr $r0,$fs21
    4680:	6a 23 80 01 	fmfsr $r2,$fs7
    4684:	40 08 00 02 	and $r0,$r16,$r0
    4688:	f3 06       	lwi37.sp $r3,[+#0x18]
    468a:	92 14       	srli45 $r0,#0x14
    468c:	6a 16 80 01 	fmfsr $r1,$fs13
    4690:	96 02       	seb33 $r0,$r0
    4692:	fe 56       	and33 $r1,$r2
    4694:	88 60       	add45 $r3,$r0
    4696:	46 24 ff 00 	sethi $r2,#0x4ff00
    469a:	96 d9       	zeh33 $r3,$r3
    469c:	fe 8f       	or33 $r2,$r1
    469e:	f3 86       	swi37.sp $r3,[+#0x18]
    46a0:	4c 28 00 62 	beq $r2,$r16,4764 <lfs_dir_fetchmatch+0x4dc>
    46a4:	6a 26 80 01 	fmfsr $r2,$fs13
    46a8:	5a 2f ff 04 	bnec $r2,#-1,46b0 <lfs_dir_fetchmatch+0x428>
    46ac:	48 ff ff 2a 	j 4500 <lfs_dir_fetchmatch+0x278>
    46b0:	6a 23 80 01 	fmfsr $r2,$fs7
    46b4:	92 2a       	srli45 $r1,#0xa
    46b6:	40 28 08 02 	and $r2,$r16,$r2
    46ba:	92 4a       	srli45 $r2,#0xa
    46bc:	96 91       	zeh33 $r2,$r2
    46be:	96 49       	zeh33 $r1,$r1
    46c0:	e2 22       	slt45 $r1,$r2
    46c2:	4e f3 ff 1f 	bnez $r15,4500 <lfs_dir_fetchmatch+0x278>
    46c6:	6a 16 80 01 	fmfsr $r1,$fs13
    46ca:	40 00 28 08 	slli $r0,$r0,#0xa
    46ce:	88 20       	add45 $r1,$r0
    46d0:	6a 16 80 09 	fmtsr $r1,$fs13
    46d4:	48 ff ff 16 	j 4500 <lfs_dir_fetchmatch+0x278>
    46d8:	84 01       	movi55 $r0,#0x1
    46da:	6a 09 80 09 	fmtsr $r0,$fs19
    46de:	48 ff fe 63 	j 43a4 <lfs_dir_fetchmatch+0x11c>
    46e2:	84 1f       	movi55 $r0,#-1
    46e4:	6a 06 80 09 	fmtsr $r0,$fs13
    46e8:	81 ac       	mov55 $r13,$r12
    46ea:	48 ff fe 73 	j 43d0 <lfs_dir_fetchmatch+0x148>
    46ee:	85 e0       	movi55 $r15,#0x0
    46f0:	5a 0f ac 04 	bnec $r0,#-84,46f8 <lfs_dir_fetchmatch+0x470>
    46f4:	48 ff fe 1e 	j 4330 <lfs_dir_fetchmatch+0xa8>
    46f8:	d5 8c       	j8 4610 <lfs_dir_fetchmatch+0x388>
    46fa:	82 0c       	mov55 $r16,$r12
    46fc:	48 ff fe f4 	j 44e4 <lfs_dir_fetchmatch+0x25c>
    4700:	f1 08       	lwi37.sp $r1,[+#0x20]
    4702:	04 23 00 0b 	lwi $r2,[$r6+#0x2c]
    4706:	40 00 d8 08 	slli $r0,$r1,#0x16
    470a:	90 16       	srai45 $r0,#0x16
    470c:	8c 01       	addi45 $r0,#0x1
    470e:	e6 01       	slti45 $r0,#0x1
    4710:	40 f7 84 00 	add $r15,$r15,$r1
    4714:	6a 3a 80 01 	fmfsr $r3,$fs21
    4718:	54 07 83 ff 	andi $r0,$r15,#0x3ff
    471c:	8c 04       	addi45 $r0,#0x4
    471e:	41 00 8c 02 	and $r16,$r1,$r3
    4722:	fe bd       	xor33 $r2,$r7
    4724:	88 09       	add45 $r0,$r9
    4726:	6a 17 00 01 	fmfsr $r1,$fs14
    472a:	14 23 00 0b 	swi $r2,[$r6+#0x2c]
    472e:	41 08 2c 08 	slli $r16,$r16,#0xb
    4732:	14 05 00 03 	swi $r0,[$r10+#0xc]
    4736:	02 0f 80 0c 	lhi $r0,[$sp+#0x18]
    473a:	b4 61       	lwi450 $r3,[$r1]
    473c:	40 d6 40 03 	xor $r13,$r12,$r16
    4740:	a0 49       	lwi333 $r1,[$r1+#0x4]
    4742:	12 05 00 0a 	shi $r0,[$r10+#0x14]
    4746:	00 0f 80 1c 	lbi $r0,[$sp+#0x1c]
    474a:	6a 66 b4 c0 	fcpyss $fs6,$fs13,$fs13
    474e:	14 d5 00 04 	swi $r13,[$r10+#0x10]
    4752:	14 35 00 06 	swi $r3,[$r10+#0x18]
